
rigel.o:     file format elf64-x86-64


Disassembly of section .text:

0000000000000000 <_ZNSbIjSt11char_traitsIjESaIjEE4_Rep10_M_disposeERKS1_.isra.23>:
   0:	48 81 ff 00 00 00 00 	cmp    $0x0,%rdi
   7:	75 07                	jne    10 <_ZNSbIjSt11char_traitsIjESaIjEE4_Rep10_M_disposeERKS1_.isra.23+0x10>
   9:	f3 c3                	repz retq 
   b:	0f 1f 44 00 00       	nopl   0x0(%rax,%rax,1)
  10:	b8 00 00 00 00       	mov    $0x0,%eax
  15:	48 85 c0             	test   %rax,%rax
  18:	74 16                	je     30 <_ZNSbIjSt11char_traitsIjESaIjEE4_Rep10_M_disposeERKS1_.isra.23+0x30>
  1a:	b8 ff ff ff ff       	mov    $0xffffffff,%eax
  1f:	f0 0f c1 47 10       	lock xadd %eax,0x10(%rdi)
  24:	85 c0                	test   %eax,%eax
  26:	7f e1                	jg     9 <_ZNSbIjSt11char_traitsIjESaIjEE4_Rep10_M_disposeERKS1_.isra.23+0x9>
  28:	e9 00 00 00 00       	jmpq   2d <_ZNSbIjSt11char_traitsIjESaIjEE4_Rep10_M_disposeERKS1_.isra.23+0x2d>
  2d:	0f 1f 00             	nopl   (%rax)
  30:	8b 47 10             	mov    0x10(%rdi),%eax
  33:	8d 50 ff             	lea    -0x1(%rax),%edx
  36:	89 57 10             	mov    %edx,0x10(%rdi)
  39:	eb e9                	jmp    24 <_ZNSbIjSt11char_traitsIjESaIjEE4_Rep10_M_disposeERKS1_.isra.23+0x24>
  3b:	90                   	nop
  3c:	0f 1f 40 00          	nopl   0x0(%rax)

0000000000000040 <_ZNSs4_Rep10_M_disposeERKSaIcE.part.6>:
  40:	b8 00 00 00 00       	mov    $0x0,%eax
  45:	48 85 c0             	test   %rax,%rax
  48:	74 16                	je     60 <_ZNSs4_Rep10_M_disposeERKSaIcE.part.6+0x20>
  4a:	b8 ff ff ff ff       	mov    $0xffffffff,%eax
  4f:	f0 0f c1 47 10       	lock xadd %eax,0x10(%rdi)
  54:	85 c0                	test   %eax,%eax
  56:	7e 15                	jle    6d <_ZNSs4_Rep10_M_disposeERKSaIcE.part.6+0x2d>
  58:	f3 c3                	repz retq 
  5a:	66 0f 1f 44 00 00    	nopw   0x0(%rax,%rax,1)
  60:	8b 47 10             	mov    0x10(%rdi),%eax
  63:	8d 50 ff             	lea    -0x1(%rax),%edx
  66:	85 c0                	test   %eax,%eax
  68:	89 57 10             	mov    %edx,0x10(%rdi)
  6b:	7f eb                	jg     58 <_ZNSs4_Rep10_M_disposeERKSaIcE.part.6+0x18>
  6d:	e9 00 00 00 00       	jmpq   72 <_ZNSs4_Rep10_M_disposeERKSaIcE.part.6+0x32>
  72:	66 66 66 66 66 2e 0f 	data16 data16 data16 data16 nopw %cs:0x0(%rax,%rax,1)
  79:	1f 84 00 00 00 00 00 

0000000000000080 <_Z9gameTitlev>:
  80:	53                   	push   %rbx
  81:	ba 1e 00 00 00       	mov    $0x1e,%edx
  86:	be 00 00 00 00       	mov    $0x0,%esi
  8b:	bf 00 00 00 00       	mov    $0x0,%edi
  90:	e8 00 00 00 00       	callq  95 <_Z9gameTitlev+0x15>
  95:	48 8b 05 00 00 00 00 	mov    0x0(%rip),%rax        # 9c <_Z9gameTitlev+0x1c>
  9c:	48 8b 40 e8          	mov    -0x18(%rax),%rax
  a0:	48 8b 98 00 00 00 00 	mov    0x0(%rax),%rbx
  a7:	48 85 db             	test   %rbx,%rbx
  aa:	0f 84 5d 03 00 00    	je     40d <_Z9gameTitlev+0x38d>
  b0:	80 7b 38 00          	cmpb   $0x0,0x38(%rbx)
  b4:	0f 84 06 02 00 00    	je     2c0 <_Z9gameTitlev+0x240>
  ba:	0f be 73 43          	movsbl 0x43(%rbx),%esi
  be:	bf 00 00 00 00       	mov    $0x0,%edi
  c3:	e8 00 00 00 00       	callq  c8 <_Z9gameTitlev+0x48>
  c8:	48 89 c7             	mov    %rax,%rdi
  cb:	e8 00 00 00 00       	callq  d0 <_Z9gameTitlev+0x50>
  d0:	ba 1f 00 00 00       	mov    $0x1f,%edx
  d5:	be 00 00 00 00       	mov    $0x0,%esi
  da:	bf 00 00 00 00       	mov    $0x0,%edi
  df:	e8 00 00 00 00       	callq  e4 <_Z9gameTitlev+0x64>
  e4:	48 8b 05 00 00 00 00 	mov    0x0(%rip),%rax        # eb <_Z9gameTitlev+0x6b>
  eb:	48 8b 40 e8          	mov    -0x18(%rax),%rax
  ef:	48 8b 98 00 00 00 00 	mov    0x0(%rax),%rbx
  f6:	48 85 db             	test   %rbx,%rbx
  f9:	0f 84 0e 03 00 00    	je     40d <_Z9gameTitlev+0x38d>
  ff:	80 7b 38 00          	cmpb   $0x0,0x38(%rbx)
 103:	0f 84 e7 01 00 00    	je     2f0 <_Z9gameTitlev+0x270>
 109:	0f be 73 43          	movsbl 0x43(%rbx),%esi
 10d:	bf 00 00 00 00       	mov    $0x0,%edi
 112:	e8 00 00 00 00       	callq  117 <_Z9gameTitlev+0x97>
 117:	48 89 c7             	mov    %rax,%rdi
 11a:	e8 00 00 00 00       	callq  11f <_Z9gameTitlev+0x9f>
 11f:	ba 1f 00 00 00       	mov    $0x1f,%edx
 124:	be 00 00 00 00       	mov    $0x0,%esi
 129:	bf 00 00 00 00       	mov    $0x0,%edi
 12e:	e8 00 00 00 00       	callq  133 <_Z9gameTitlev+0xb3>
 133:	48 8b 05 00 00 00 00 	mov    0x0(%rip),%rax        # 13a <_Z9gameTitlev+0xba>
 13a:	48 8b 40 e8          	mov    -0x18(%rax),%rax
 13e:	48 8b 98 00 00 00 00 	mov    0x0(%rax),%rbx
 145:	48 85 db             	test   %rbx,%rbx
 148:	0f 84 bf 02 00 00    	je     40d <_Z9gameTitlev+0x38d>
 14e:	80 7b 38 00          	cmpb   $0x0,0x38(%rbx)
 152:	0f 84 c8 01 00 00    	je     320 <_Z9gameTitlev+0x2a0>
 158:	0f be 73 43          	movsbl 0x43(%rbx),%esi
 15c:	bf 00 00 00 00       	mov    $0x0,%edi
 161:	e8 00 00 00 00       	callq  166 <_Z9gameTitlev+0xe6>
 166:	48 89 c7             	mov    %rax,%rdi
 169:	e8 00 00 00 00       	callq  16e <_Z9gameTitlev+0xee>
 16e:	ba 1f 00 00 00       	mov    $0x1f,%edx
 173:	be 00 00 00 00       	mov    $0x0,%esi
 178:	bf 00 00 00 00       	mov    $0x0,%edi
 17d:	e8 00 00 00 00       	callq  182 <_Z9gameTitlev+0x102>
 182:	48 8b 05 00 00 00 00 	mov    0x0(%rip),%rax        # 189 <_Z9gameTitlev+0x109>
 189:	48 8b 40 e8          	mov    -0x18(%rax),%rax
 18d:	48 8b 98 00 00 00 00 	mov    0x0(%rax),%rbx
 194:	48 85 db             	test   %rbx,%rbx
 197:	0f 84 70 02 00 00    	je     40d <_Z9gameTitlev+0x38d>
 19d:	80 7b 38 00          	cmpb   $0x0,0x38(%rbx)
 1a1:	0f 84 a9 01 00 00    	je     350 <_Z9gameTitlev+0x2d0>
 1a7:	0f be 73 43          	movsbl 0x43(%rbx),%esi
 1ab:	bf 00 00 00 00       	mov    $0x0,%edi
 1b0:	e8 00 00 00 00       	callq  1b5 <_Z9gameTitlev+0x135>
 1b5:	48 89 c7             	mov    %rax,%rdi
 1b8:	e8 00 00 00 00       	callq  1bd <_Z9gameTitlev+0x13d>
 1bd:	ba 21 00 00 00       	mov    $0x21,%edx
 1c2:	be 00 00 00 00       	mov    $0x0,%esi
 1c7:	bf 00 00 00 00       	mov    $0x0,%edi
 1cc:	e8 00 00 00 00       	callq  1d1 <_Z9gameTitlev+0x151>
 1d1:	48 8b 05 00 00 00 00 	mov    0x0(%rip),%rax        # 1d8 <_Z9gameTitlev+0x158>
 1d8:	48 8b 40 e8          	mov    -0x18(%rax),%rax
 1dc:	48 8b 98 00 00 00 00 	mov    0x0(%rax),%rbx
 1e3:	48 85 db             	test   %rbx,%rbx
 1e6:	0f 84 21 02 00 00    	je     40d <_Z9gameTitlev+0x38d>
 1ec:	80 7b 38 00          	cmpb   $0x0,0x38(%rbx)
 1f0:	0f 84 8a 01 00 00    	je     380 <_Z9gameTitlev+0x300>
 1f6:	0f be 73 43          	movsbl 0x43(%rbx),%esi
 1fa:	bf 00 00 00 00       	mov    $0x0,%edi
 1ff:	e8 00 00 00 00       	callq  204 <_Z9gameTitlev+0x184>
 204:	48 89 c7             	mov    %rax,%rdi
 207:	e8 00 00 00 00       	callq  20c <_Z9gameTitlev+0x18c>
 20c:	ba 1b 00 00 00       	mov    $0x1b,%edx
 211:	be 00 00 00 00       	mov    $0x0,%esi
 216:	bf 00 00 00 00       	mov    $0x0,%edi
 21b:	e8 00 00 00 00       	callq  220 <_Z9gameTitlev+0x1a0>
 220:	48 8b 05 00 00 00 00 	mov    0x0(%rip),%rax        # 227 <_Z9gameTitlev+0x1a7>
 227:	48 8b 40 e8          	mov    -0x18(%rax),%rax
 22b:	48 8b 98 00 00 00 00 	mov    0x0(%rax),%rbx
 232:	48 85 db             	test   %rbx,%rbx
 235:	0f 84 d2 01 00 00    	je     40d <_Z9gameTitlev+0x38d>
 23b:	80 7b 38 00          	cmpb   $0x0,0x38(%rbx)
 23f:	0f 84 6b 01 00 00    	je     3b0 <_Z9gameTitlev+0x330>
 245:	0f be 73 43          	movsbl 0x43(%rbx),%esi
 249:	bf 00 00 00 00       	mov    $0x0,%edi
 24e:	e8 00 00 00 00       	callq  253 <_Z9gameTitlev+0x1d3>
 253:	48 89 c7             	mov    %rax,%rdi
 256:	e8 00 00 00 00       	callq  25b <_Z9gameTitlev+0x1db>
 25b:	ba 16 00 00 00       	mov    $0x16,%edx
 260:	be 00 00 00 00       	mov    $0x0,%esi
 265:	bf 00 00 00 00       	mov    $0x0,%edi
 26a:	e8 00 00 00 00       	callq  26f <_Z9gameTitlev+0x1ef>
 26f:	48 8b 05 00 00 00 00 	mov    0x0(%rip),%rax        # 276 <_Z9gameTitlev+0x1f6>
 276:	48 8b 40 e8          	mov    -0x18(%rax),%rax
 27a:	48 8b 98 00 00 00 00 	mov    0x0(%rax),%rbx
 281:	48 85 db             	test   %rbx,%rbx
 284:	0f 84 83 01 00 00    	je     40d <_Z9gameTitlev+0x38d>
 28a:	80 7b 38 00          	cmpb   $0x0,0x38(%rbx)
 28e:	0f 84 4c 01 00 00    	je     3e0 <_Z9gameTitlev+0x360>
 294:	0f be 73 43          	movsbl 0x43(%rbx),%esi
 298:	bf 00 00 00 00       	mov    $0x0,%edi
 29d:	e8 00 00 00 00       	callq  2a2 <_Z9gameTitlev+0x222>
 2a2:	48 89 c7             	mov    %rax,%rdi
 2a5:	e8 00 00 00 00       	callq  2aa <_Z9gameTitlev+0x22a>
 2aa:	5b                   	pop    %rbx
 2ab:	ba 24 00 00 00       	mov    $0x24,%edx
 2b0:	be 00 00 00 00       	mov    $0x0,%esi
 2b5:	bf 00 00 00 00       	mov    $0x0,%edi
 2ba:	e9 00 00 00 00       	jmpq   2bf <_Z9gameTitlev+0x23f>
 2bf:	90                   	nop
 2c0:	48 89 df             	mov    %rbx,%rdi
 2c3:	e8 00 00 00 00       	callq  2c8 <_Z9gameTitlev+0x248>
 2c8:	48 8b 03             	mov    (%rbx),%rax
 2cb:	be 0a 00 00 00       	mov    $0xa,%esi
 2d0:	48 8b 40 30          	mov    0x30(%rax),%rax
 2d4:	48 3d 00 00 00 00    	cmp    $0x0,%rax
 2da:	0f 84 de fd ff ff    	je     be <_Z9gameTitlev+0x3e>
 2e0:	48 89 df             	mov    %rbx,%rdi
 2e3:	ff d0                	callq  *%rax
 2e5:	0f be f0             	movsbl %al,%esi
 2e8:	e9 d1 fd ff ff       	jmpq   be <_Z9gameTitlev+0x3e>
 2ed:	0f 1f 00             	nopl   (%rax)
 2f0:	48 89 df             	mov    %rbx,%rdi
 2f3:	e8 00 00 00 00       	callq  2f8 <_Z9gameTitlev+0x278>
 2f8:	48 8b 03             	mov    (%rbx),%rax
 2fb:	be 0a 00 00 00       	mov    $0xa,%esi
 300:	48 8b 40 30          	mov    0x30(%rax),%rax
 304:	48 3d 00 00 00 00    	cmp    $0x0,%rax
 30a:	0f 84 fd fd ff ff    	je     10d <_Z9gameTitlev+0x8d>
 310:	48 89 df             	mov    %rbx,%rdi
 313:	ff d0                	callq  *%rax
 315:	0f be f0             	movsbl %al,%esi
 318:	e9 f0 fd ff ff       	jmpq   10d <_Z9gameTitlev+0x8d>
 31d:	0f 1f 00             	nopl   (%rax)
 320:	48 89 df             	mov    %rbx,%rdi
 323:	e8 00 00 00 00       	callq  328 <_Z9gameTitlev+0x2a8>
 328:	48 8b 03             	mov    (%rbx),%rax
 32b:	be 0a 00 00 00       	mov    $0xa,%esi
 330:	48 8b 40 30          	mov    0x30(%rax),%rax
 334:	48 3d 00 00 00 00    	cmp    $0x0,%rax
 33a:	0f 84 1c fe ff ff    	je     15c <_Z9gameTitlev+0xdc>
 340:	48 89 df             	mov    %rbx,%rdi
 343:	ff d0                	callq  *%rax
 345:	0f be f0             	movsbl %al,%esi
 348:	e9 0f fe ff ff       	jmpq   15c <_Z9gameTitlev+0xdc>
 34d:	0f 1f 00             	nopl   (%rax)
 350:	48 89 df             	mov    %rbx,%rdi
 353:	e8 00 00 00 00       	callq  358 <_Z9gameTitlev+0x2d8>
 358:	48 8b 03             	mov    (%rbx),%rax
 35b:	be 0a 00 00 00       	mov    $0xa,%esi
 360:	48 8b 40 30          	mov    0x30(%rax),%rax
 364:	48 3d 00 00 00 00    	cmp    $0x0,%rax
 36a:	0f 84 3b fe ff ff    	je     1ab <_Z9gameTitlev+0x12b>
 370:	48 89 df             	mov    %rbx,%rdi
 373:	ff d0                	callq  *%rax
 375:	0f be f0             	movsbl %al,%esi
 378:	e9 2e fe ff ff       	jmpq   1ab <_Z9gameTitlev+0x12b>
 37d:	0f 1f 00             	nopl   (%rax)
 380:	48 89 df             	mov    %rbx,%rdi
 383:	e8 00 00 00 00       	callq  388 <_Z9gameTitlev+0x308>
 388:	48 8b 03             	mov    (%rbx),%rax
 38b:	be 0a 00 00 00       	mov    $0xa,%esi
 390:	48 8b 40 30          	mov    0x30(%rax),%rax
 394:	48 3d 00 00 00 00    	cmp    $0x0,%rax
 39a:	0f 84 5a fe ff ff    	je     1fa <_Z9gameTitlev+0x17a>
 3a0:	48 89 df             	mov    %rbx,%rdi
 3a3:	ff d0                	callq  *%rax
 3a5:	0f be f0             	movsbl %al,%esi
 3a8:	e9 4d fe ff ff       	jmpq   1fa <_Z9gameTitlev+0x17a>
 3ad:	0f 1f 00             	nopl   (%rax)
 3b0:	48 89 df             	mov    %rbx,%rdi
 3b3:	e8 00 00 00 00       	callq  3b8 <_Z9gameTitlev+0x338>
 3b8:	48 8b 03             	mov    (%rbx),%rax
 3bb:	be 0a 00 00 00       	mov    $0xa,%esi
 3c0:	48 8b 40 30          	mov    0x30(%rax),%rax
 3c4:	48 3d 00 00 00 00    	cmp    $0x0,%rax
 3ca:	0f 84 79 fe ff ff    	je     249 <_Z9gameTitlev+0x1c9>
 3d0:	48 89 df             	mov    %rbx,%rdi
 3d3:	ff d0                	callq  *%rax
 3d5:	0f be f0             	movsbl %al,%esi
 3d8:	e9 6c fe ff ff       	jmpq   249 <_Z9gameTitlev+0x1c9>
 3dd:	0f 1f 00             	nopl   (%rax)
 3e0:	48 89 df             	mov    %rbx,%rdi
 3e3:	e8 00 00 00 00       	callq  3e8 <_Z9gameTitlev+0x368>
 3e8:	48 8b 03             	mov    (%rbx),%rax
 3eb:	be 0a 00 00 00       	mov    $0xa,%esi
 3f0:	48 8b 40 30          	mov    0x30(%rax),%rax
 3f4:	48 3d 00 00 00 00    	cmp    $0x0,%rax
 3fa:	0f 84 98 fe ff ff    	je     298 <_Z9gameTitlev+0x218>
 400:	48 89 df             	mov    %rbx,%rdi
 403:	ff d0                	callq  *%rax
 405:	0f be f0             	movsbl %al,%esi
 408:	e9 8b fe ff ff       	jmpq   298 <_Z9gameTitlev+0x218>
 40d:	e8 00 00 00 00       	callq  412 <_Z9gameTitlev+0x392>
 412:	66 66 66 66 66 2e 0f 	data16 data16 data16 data16 nopw %cs:0x0(%rax,%rax,1)
 419:	1f 84 00 00 00 00 00 

0000000000000420 <_Z4menuRbRSs>:
 420:	55                   	push   %rbp
 421:	53                   	push   %rbx
 422:	ba 11 00 00 00       	mov    $0x11,%edx
 427:	48 89 fb             	mov    %rdi,%rbx
 42a:	48 89 f5             	mov    %rsi,%rbp
 42d:	bf 00 00 00 00       	mov    $0x0,%edi
 432:	48 83 ec 18          	sub    $0x18,%rsp
 436:	be 00 00 00 00       	mov    $0x0,%esi
 43b:	64 48 8b 04 25 28 00 	mov    %fs:0x28,%rax
 442:	00 00 
 444:	48 89 44 24 08       	mov    %rax,0x8(%rsp)
 449:	31 c0                	xor    %eax,%eax
 44b:	e8 00 00 00 00       	callq  450 <_Z4menuRbRSs+0x30>
 450:	ba 0a 00 00 00       	mov    $0xa,%edx
 455:	be 00 00 00 00       	mov    $0x0,%esi
 45a:	bf 00 00 00 00       	mov    $0x0,%edi
 45f:	e8 00 00 00 00       	callq  464 <_Z4menuRbRSs+0x44>
 464:	ba 14 00 00 00       	mov    $0x14,%edx
 469:	be 00 00 00 00       	mov    $0x0,%esi
 46e:	bf 00 00 00 00       	mov    $0x0,%edi
 473:	e8 00 00 00 00       	callq  478 <_Z4menuRbRSs+0x58>
 478:	ba 0b 00 00 00       	mov    $0xb,%edx
 47d:	be 00 00 00 00       	mov    $0x0,%esi
 482:	bf 00 00 00 00       	mov    $0x0,%edi
 487:	e8 00 00 00 00       	callq  48c <_Z4menuRbRSs+0x6c>
 48c:	ba 09 00 00 00       	mov    $0x9,%edx
 491:	be 00 00 00 00       	mov    $0x0,%esi
 496:	bf 00 00 00 00       	mov    $0x0,%edi
 49b:	e8 00 00 00 00       	callq  4a0 <_Z4menuRbRSs+0x80>
 4a0:	48 8d 74 24 04       	lea    0x4(%rsp),%rsi
 4a5:	bf 00 00 00 00       	mov    $0x0,%edi
 4aa:	e8 00 00 00 00       	callq  4af <_Z4menuRbRSs+0x8f>
 4af:	8b 44 24 04          	mov    0x4(%rsp),%eax
 4b3:	83 f8 02             	cmp    $0x2,%eax
 4b6:	74 38                	je     4f0 <_Z4menuRbRSs+0xd0>
 4b8:	7e 26                	jle    4e0 <_Z4menuRbRSs+0xc0>
 4ba:	83 f8 04             	cmp    $0x4,%eax
 4bd:	7f 29                	jg     4e8 <_Z4menuRbRSs+0xc8>
 4bf:	b8 01 00 00 00       	mov    $0x1,%eax
 4c4:	48 8b 4c 24 08       	mov    0x8(%rsp),%rcx
 4c9:	64 48 33 0c 25 28 00 	xor    %fs:0x28,%rcx
 4d0:	00 00 
 4d2:	0f 85 c9 00 00 00    	jne    5a1 <_Z4menuRbRSs+0x181>
 4d8:	48 83 c4 18          	add    $0x18,%rsp
 4dc:	5b                   	pop    %rbx
 4dd:	5d                   	pop    %rbp
 4de:	c3                   	retq   
 4df:	90                   	nop
 4e0:	83 f8 01             	cmp    $0x1,%eax
 4e3:	75 03                	jne    4e8 <_Z4menuRbRSs+0xc8>
 4e5:	c6 03 01             	movb   $0x1,(%rbx)
 4e8:	31 c0                	xor    %eax,%eax
 4ea:	eb d8                	jmp    4c4 <_Z4menuRbRSs+0xa4>
 4ec:	0f 1f 40 00          	nopl   0x0(%rax)
 4f0:	ba 17 00 00 00       	mov    $0x17,%edx
 4f5:	be 00 00 00 00       	mov    $0x0,%esi
 4fa:	bf 00 00 00 00       	mov    $0x0,%edi
 4ff:	e8 00 00 00 00       	callq  504 <_Z4menuRbRSs+0xe4>
 504:	ba 11 00 00 00       	mov    $0x11,%edx
 509:	be 00 00 00 00       	mov    $0x0,%esi
 50e:	bf 00 00 00 00       	mov    $0x0,%edi
 513:	e8 00 00 00 00       	callq  518 <_Z4menuRbRSs+0xf8>
 518:	ba 13 00 00 00       	mov    $0x13,%edx
 51d:	be 00 00 00 00       	mov    $0x0,%esi
 522:	bf 00 00 00 00       	mov    $0x0,%edi
 527:	e8 00 00 00 00       	callq  52c <_Z4menuRbRSs+0x10c>
 52c:	48 8d 74 24 03       	lea    0x3(%rsp),%rsi
 531:	bf 00 00 00 00       	mov    $0x0,%edi
 536:	e8 00 00 00 00       	callq  53b <_Z4menuRbRSs+0x11b>
 53b:	0f b6 44 24 03       	movzbl 0x3(%rsp),%eax
 540:	3c 62                	cmp    $0x62,%al
 542:	74 24                	je     568 <_Z4menuRbRSs+0x148>
 544:	3c 63                	cmp    $0x63,%al
 546:	74 40                	je     588 <_Z4menuRbRSs+0x168>
 548:	3c 61                	cmp    $0x61,%al
 54a:	75 9c                	jne    4e8 <_Z4menuRbRSs+0xc8>
 54c:	ba 10 00 00 00       	mov    $0x10,%edx
 551:	be 00 00 00 00       	mov    $0x0,%esi
 556:	48 89 ef             	mov    %rbp,%rdi
 559:	e8 00 00 00 00       	callq  55e <_Z4menuRbRSs+0x13e>
 55e:	31 c0                	xor    %eax,%eax
 560:	e9 5f ff ff ff       	jmpq   4c4 <_Z4menuRbRSs+0xa4>
 565:	0f 1f 00             	nopl   (%rax)
 568:	ba 0c 00 00 00       	mov    $0xc,%edx
 56d:	be 00 00 00 00       	mov    $0x0,%esi
 572:	48 89 ef             	mov    %rbp,%rdi
 575:	e8 00 00 00 00       	callq  57a <_Z4menuRbRSs+0x15a>
 57a:	31 c0                	xor    %eax,%eax
 57c:	e9 43 ff ff ff       	jmpq   4c4 <_Z4menuRbRSs+0xa4>
 581:	0f 1f 80 00 00 00 00 	nopl   0x0(%rax)
 588:	ba 0f 00 00 00       	mov    $0xf,%edx
 58d:	be 00 00 00 00       	mov    $0x0,%esi
 592:	48 89 ef             	mov    %rbp,%rdi
 595:	e8 00 00 00 00       	callq  59a <_Z4menuRbRSs+0x17a>
 59a:	31 c0                	xor    %eax,%eax
 59c:	e9 23 ff ff ff       	jmpq   4c4 <_Z4menuRbRSs+0xa4>
 5a1:	e8 00 00 00 00       	callq  5a6 <_Z4menuRbRSs+0x186>
 5a6:	66 2e 0f 1f 84 00 00 	nopw   %cs:0x0(%rax,%rax,1)
 5ad:	00 00 00 

00000000000005b0 <_Z18checkLevelCompleteiRb>:
 5b0:	53                   	push   %rbx
 5b1:	48 83 ec 20          	sub    $0x20,%rsp
 5b5:	6b 15 00 00 00 00 64 	imul   $0x64,0x0(%rip),%edx        # 5bc <_Z18checkLevelCompleteiRb+0xc>
 5bc:	64 48 8b 04 25 28 00 	mov    %fs:0x28,%rax
 5c3:	00 00 
 5c5:	48 89 44 24 18       	mov    %rax,0x18(%rsp)
 5ca:	31 c0                	xor    %eax,%eax
 5cc:	39 fa                	cmp    %edi,%edx
 5ce:	7e 20                	jle    5f0 <_Z18checkLevelCompleteiRb+0x40>
 5d0:	48 8b 5c 24 18       	mov    0x18(%rsp),%rbx
 5d5:	64 48 33 1c 25 28 00 	xor    %fs:0x28,%rbx
 5dc:	00 00 
 5de:	0f 85 99 00 00 00    	jne    67d <_Z18checkLevelCompleteiRb+0xcd>
 5e4:	48 83 c4 20          	add    $0x20,%rsp
 5e8:	5b                   	pop    %rbx
 5e9:	c3                   	retq   
 5ea:	66 0f 1f 44 00 00    	nopw   0x0(%rax,%rax,1)
 5f0:	8b 05 00 00 00 00    	mov    0x0(%rip),%eax        # 5f6 <_Z18checkLevelCompleteiRb+0x46>
 5f6:	c6 05 00 00 00 00 01 	movb   $0x1,0x0(%rip)        # 5fd <_Z18checkLevelCompleteiRb+0x4d>
 5fd:	48 8d 7c 24 10       	lea    0x10(%rsp),%rdi
 602:	c6 06 01             	movb   $0x1,(%rsi)
 605:	8d 70 01             	lea    0x1(%rax),%esi
 608:	89 35 00 00 00 00    	mov    %esi,0x0(%rip)        # 60e <_Z18checkLevelCompleteiRb+0x5e>
 60e:	e8 00 00 00 00       	callq  613 <_Z18checkLevelCompleteiRb+0x63>
 613:	48 8d 74 24 10       	lea    0x10(%rsp),%rsi
 618:	bf 00 00 00 00       	mov    $0x0,%edi
 61d:	e8 00 00 00 00       	callq  622 <_Z18checkLevelCompleteiRb+0x72>
 622:	48 8b 44 24 10       	mov    0x10(%rsp),%rax
 627:	48 8d 78 e8          	lea    -0x18(%rax),%rdi
 62b:	48 81 ff 00 00 00 00 	cmp    $0x0,%rdi
 632:	75 0c                	jne    640 <_Z18checkLevelCompleteiRb+0x90>
 634:	b8 01 00 00 00       	mov    $0x1,%eax
 639:	eb 95                	jmp    5d0 <_Z18checkLevelCompleteiRb+0x20>
 63b:	0f 1f 44 00 00       	nopl   0x0(%rax,%rax,1)
 640:	ba 00 00 00 00       	mov    $0x0,%edx
 645:	48 85 d2             	test   %rdx,%rdx
 648:	74 26                	je     670 <_Z18checkLevelCompleteiRb+0xc0>
 64a:	ba ff ff ff ff       	mov    $0xffffffff,%edx
 64f:	f0 0f c1 50 f8       	lock xadd %edx,-0x8(%rax)
 654:	89 d0                	mov    %edx,%eax
 656:	85 c0                	test   %eax,%eax
 658:	7f da                	jg     634 <_Z18checkLevelCompleteiRb+0x84>
 65a:	48 8d 74 24 0f       	lea    0xf(%rsp),%rsi
 65f:	e8 00 00 00 00       	callq  664 <_Z18checkLevelCompleteiRb+0xb4>
 664:	eb ce                	jmp    634 <_Z18checkLevelCompleteiRb+0x84>
 666:	66 2e 0f 1f 84 00 00 	nopw   %cs:0x0(%rax,%rax,1)
 66d:	00 00 00 
 670:	8b 50 f8             	mov    -0x8(%rax),%edx
 673:	8d 4a ff             	lea    -0x1(%rdx),%ecx
 676:	89 48 f8             	mov    %ecx,-0x8(%rax)
 679:	89 d0                	mov    %edx,%eax
 67b:	eb d9                	jmp    656 <_Z18checkLevelCompleteiRb+0xa6>
 67d:	e8 00 00 00 00       	callq  682 <_Z18checkLevelCompleteiRb+0xd2>
 682:	48 89 c3             	mov    %rax,%rbx
 685:	48 8b 44 24 10       	mov    0x10(%rsp),%rax
 68a:	48 8d 78 e8          	lea    -0x18(%rax),%rdi
 68e:	48 81 ff 00 00 00 00 	cmp    $0x0,%rdi
 695:	74 0a                	je     6a1 <_Z18checkLevelCompleteiRb+0xf1>
 697:	48 8d 74 24 0f       	lea    0xf(%rsp),%rsi
 69c:	e8 9f f9 ff ff       	callq  40 <_ZNSs4_Rep10_M_disposeERKSaIcE.part.6>
 6a1:	48 89 df             	mov    %rbx,%rdi
 6a4:	e8 00 00 00 00       	callq  6a9 <_Z18checkLevelCompleteiRb+0xf9>

Disassembly of section .text._ZNKSt5ctypeIcE8do_widenEc:

0000000000000000 <_ZNKSt5ctypeIcE8do_widenEc>:
   0:	89 f0                	mov    %esi,%eax
   2:	c3                   	retq   

Disassembly of section .text._ZN6blocks5shapeD2Ev:

0000000000000000 <_ZN6blocks5shapeD1Ev>:
   0:	55                   	push   %rbp
   1:	53                   	push   %rbx
   2:	48 89 fb             	mov    %rdi,%rbx
   5:	48 8d bf 58 01 00 00 	lea    0x158(%rdi),%rdi
   c:	48 83 ec 08          	sub    $0x8,%rsp
  10:	48 c7 07 00 00 00 00 	movq   $0x0,(%rdi)
  17:	48 c7 47 08 00 00 00 	movq   $0x0,0x8(%rdi)
  1e:	00 
  1f:	e8 00 00 00 00       	callq  24 <_ZN6blocks5shapeD1Ev+0x24>
  24:	48 c7 03 00 00 00 00 	movq   $0x0,(%rbx)
  2b:	48 c7 43 08 00 00 00 	movq   $0x0,0x8(%rbx)
  32:	00 
  33:	48 83 c4 08          	add    $0x8,%rsp
  37:	48 89 df             	mov    %rbx,%rdi
  3a:	5b                   	pop    %rbx
  3b:	5d                   	pop    %rbp
  3c:	e9 00 00 00 00       	jmpq   41 <_ZN6blocks5shapeD1Ev+0x41>
  41:	48 89 c5             	mov    %rax,%rbp
  44:	48 89 df             	mov    %rbx,%rdi
  47:	48 c7 03 00 00 00 00 	movq   $0x0,(%rbx)
  4e:	48 c7 43 08 00 00 00 	movq   $0x0,0x8(%rbx)
  55:	00 
  56:	e8 00 00 00 00       	callq  5b <_ZN6blocks5shapeD1Ev+0x5b>
  5b:	48 89 ef             	mov    %rbp,%rdi
  5e:	e8 00 00 00 00       	callq  63 <_ZNSs4_Rep10_M_disposeERKSaIcE.part.6+0x23>

Disassembly of section .text._ZN6blocks10moveBlocksEPS_:

0000000000000000 <_ZN6blocks10moveBlocksEPS_>:
   0:	41 56                	push   %r14
   2:	41 55                	push   %r13
   4:	41 54                	push   %r12
   6:	55                   	push   %rbp
   7:	53                   	push   %rbx
   8:	48 83 ec 10          	sub    $0x10,%rsp
   c:	8b 15 00 00 00 00    	mov    0x0(%rip),%edx        # 12 <_ZN6blocks10moveBlocksEPS_+0x12>
  12:	8b 0d 00 00 00 00    	mov    0x0(%rip),%ecx        # 18 <_ZN6blocks10moveBlocksEPS_+0x18>
  18:	64 48 8b 04 25 28 00 	mov    %fs:0x28,%rax
  1f:	00 00 
  21:	48 89 44 24 08       	mov    %rax,0x8(%rsp)
  26:	31 c0                	xor    %eax,%eax
  28:	8b 05 00 00 00 00    	mov    0x0(%rip),%eax        # 2e <_ZN6blocks10moveBlocksEPS_+0x2e>
  2e:	29 d0                	sub    %edx,%eax
  30:	85 c9                	test   %ecx,%ecx
  32:	89 05 00 00 00 00    	mov    %eax,0x0(%rip)        # 38 <_ZN6blocks10moveBlocksEPS_+0x38>
  38:	0f 8e d8 02 00 00    	jle    316 <_ZN6blocks10moveBlocksEPS_+0x316>
  3e:	48 89 fb             	mov    %rdi,%rbx
  41:	4c 8d 67 20          	lea    0x20(%rdi),%r12
  45:	48 8d af 78 01 00 00 	lea    0x178(%rdi),%rbp
  4c:	45 31 f6             	xor    %r14d,%r14d
  4f:	e9 06 02 00 00       	jmpq   25a <_ZN6blocks10moveBlocksEPS_+0x25a>
  54:	0f 1f 40 00          	nopl   0x0(%rax)
  58:	41 b8 ff 00 00 00    	mov    $0xff,%r8d
  5e:	b9 ff 00 00 00       	mov    $0xff,%ecx
  63:	31 d2                	xor    %edx,%edx
  65:	be 80 00 00 00       	mov    $0x80,%esi
  6a:	48 89 e7             	mov    %rsp,%rdi
  6d:	e8 00 00 00 00       	callq  72 <_ZN6blocks10moveBlocksEPS_+0x72>
  72:	48 89 e6             	mov    %rsp,%rsi
  75:	4c 89 e7             	mov    %r12,%rdi
  78:	e8 00 00 00 00       	callq  7d <_ZN6blocks10moveBlocksEPS_+0x7d>
  7d:	41 b8 ff 00 00 00    	mov    $0xff,%r8d
  83:	b9 ff 00 00 00       	mov    $0xff,%ecx
  88:	31 d2                	xor    %edx,%edx
  8a:	be 80 00 00 00       	mov    $0x80,%esi
  8f:	48 89 e7             	mov    %rsp,%rdi
  92:	e8 00 00 00 00       	callq  97 <_ZN6blocks10moveBlocksEPS_+0x97>
  97:	48 89 e6             	mov    %rsp,%rsi
  9a:	48 89 ef             	mov    %rbp,%rdi
  9d:	e8 00 00 00 00       	callq  a2 <_ZN6blocks10moveBlocksEPS_+0xa2>
  a2:	be 00 00 00 00       	mov    $0x0,%esi
  a7:	4c 89 e7             	mov    %r12,%rdi
  aa:	e8 00 00 00 00       	callq  af <_ZN6blocks10moveBlocksEPS_+0xaf>
  af:	be 00 00 00 00       	mov    $0x0,%esi
  b4:	48 89 ef             	mov    %rbp,%rdi
  b7:	e8 00 00 00 00       	callq  bc <_ZN6blocks10moveBlocksEPS_+0xbc>
  bc:	be 00 00 00 00       	mov    $0x0,%esi
  c1:	bf 00 00 00 00       	mov    $0x0,%edi
  c6:	e8 00 00 00 00       	callq  cb <_ZN6blocks10moveBlocksEPS_+0xcb>
  cb:	85 c0                	test   %eax,%eax
  cd:	0f 84 cd 01 00 00    	je     2a0 <_ZN6blocks10moveBlocksEPS_+0x2a0>
  d3:	be 00 00 00 00       	mov    $0x0,%esi
  d8:	bf 00 00 00 00       	mov    $0x0,%edi
  dd:	e8 00 00 00 00       	callq  e2 <_ZN6blocks10moveBlocksEPS_+0xe2>
  e2:	85 c0                	test   %eax,%eax
  e4:	0f 85 8e 00 00 00    	jne    178 <_ZN6blocks10moveBlocksEPS_+0x178>
  ea:	41 b8 ff 00 00 00    	mov    $0xff,%r8d
  f0:	31 c9                	xor    %ecx,%ecx
  f2:	31 d2                	xor    %edx,%edx
  f4:	31 f6                	xor    %esi,%esi
  f6:	48 89 e7             	mov    %rsp,%rdi
  f9:	e8 00 00 00 00       	callq  fe <_ZN6blocks10moveBlocksEPS_+0xfe>
  fe:	48 89 e6             	mov    %rsp,%rsi
 101:	4c 89 e7             	mov    %r12,%rdi
 104:	e8 00 00 00 00       	callq  109 <_ZN6blocks10moveBlocksEPS_+0x109>
 109:	41 b8 ff 00 00 00    	mov    $0xff,%r8d
 10f:	31 c9                	xor    %ecx,%ecx
 111:	31 d2                	xor    %edx,%edx
 113:	31 f6                	xor    %esi,%esi
 115:	48 89 e7             	mov    %rsp,%rdi
 118:	e8 00 00 00 00       	callq  11d <_ZN6blocks10moveBlocksEPS_+0x11d>
 11d:	48 89 e6             	mov    %rsp,%rsi
 120:	48 89 ef             	mov    %rbp,%rdi
 123:	e8 00 00 00 00       	callq  128 <_ZN6blocks10moveBlocksEPS_+0x128>
 128:	41 b8 ff 00 00 00    	mov    $0xff,%r8d
 12e:	b9 1e 00 00 00       	mov    $0x1e,%ecx
 133:	ba 1e 00 00 00       	mov    $0x1e,%edx
 138:	be 1e 00 00 00       	mov    $0x1e,%esi
 13d:	48 89 e7             	mov    %rsp,%rdi
 140:	e8 00 00 00 00       	callq  145 <_ZN6blocks10moveBlocksEPS_+0x145>
 145:	48 89 e6             	mov    %rsp,%rsi
 148:	4c 89 e7             	mov    %r12,%rdi
 14b:	e8 00 00 00 00       	callq  150 <_ZN6blocks10moveBlocksEPS_+0x150>
 150:	be 1e 00 00 00       	mov    $0x1e,%esi
 155:	48 89 e7             	mov    %rsp,%rdi
 158:	41 b8 ff 00 00 00    	mov    $0xff,%r8d
 15e:	b9 1e 00 00 00       	mov    $0x1e,%ecx
 163:	ba 1e 00 00 00       	mov    $0x1e,%edx
 168:	e8 00 00 00 00       	callq  16d <_ZN6blocks10moveBlocksEPS_+0x16d>
 16d:	48 89 e6             	mov    %rsp,%rsi
 170:	48 89 ef             	mov    %rbp,%rdi
 173:	e8 00 00 00 00       	callq  178 <_ZN6blocks10moveBlocksEPS_+0x178>
 178:	4c 89 e7             	mov    %r12,%rdi
 17b:	f3 0f 10 05 00 00 00 	movss  0x0(%rip),%xmm0        # 183 <_ZN6blocks10moveBlocksEPS_+0x183>
 182:	00 
 183:	e8 00 00 00 00       	callq  188 <_ZN6blocks10moveBlocksEPS_+0x188>
 188:	48 89 ef             	mov    %rbp,%rdi
 18b:	f3 0f 10 05 00 00 00 	movss  0x0(%rip),%xmm0        # 193 <_ZN6blocks10moveBlocksEPS_+0x193>
 192:	00 
 193:	e8 00 00 00 00       	callq  198 <_ZN6blocks10moveBlocksEPS_+0x198>
 198:	66 0f ef c0          	pxor   %xmm0,%xmm0
 19c:	44 89 6b 0c          	mov    %r13d,0xc(%rbx)
 1a0:	66 0f ef c9          	pxor   %xmm1,%xmm1
 1a4:	44 89 6b 1c          	mov    %r13d,0x1c(%rbx)
 1a8:	4c 89 e7             	mov    %r12,%rdi
 1ab:	48 89 e6             	mov    %rsp,%rsi
 1ae:	41 83 c6 01          	add    $0x1,%r14d
 1b2:	f3 0f 2a 03          	cvtsi2ssl (%rbx),%xmm0
 1b6:	49 81 c4 d0 02 00 00 	add    $0x2d0,%r12
 1bd:	f3 0f 2a 4b 04       	cvtsi2ssl 0x4(%rbx),%xmm1
 1c2:	f3 0f 11 44 24 04    	movss  %xmm0,0x4(%rsp)
 1c8:	f3 0f 11 0c 24       	movss  %xmm1,(%rsp)
 1cd:	e8 00 00 00 00       	callq  1d2 <_ZN6blocks10moveBlocksEPS_+0x1d2>
 1d2:	66 0f ef c0          	pxor   %xmm0,%xmm0
 1d6:	48 89 e6             	mov    %rsp,%rsi
 1d9:	66 0f ef c9          	pxor   %xmm1,%xmm1
 1dd:	48 89 ef             	mov    %rbp,%rdi
 1e0:	48 81 c5 d0 02 00 00 	add    $0x2d0,%rbp
 1e7:	f3 0f 2a 43 10       	cvtsi2ssl 0x10(%rbx),%xmm0
 1ec:	f3 0f 2a 4b 14       	cvtsi2ssl 0x14(%rbx),%xmm1
 1f1:	f3 0f 11 44 24 04    	movss  %xmm0,0x4(%rsp)
 1f7:	f3 0f 11 0c 24       	movss  %xmm1,(%rsp)
 1fc:	e8 00 00 00 00       	callq  201 <_ZN6blocks10moveBlocksEPS_+0x201>
 201:	66 0f ef c0          	pxor   %xmm0,%xmm0
 205:	48 8d 7b 28          	lea    0x28(%rbx),%rdi
 209:	66 0f ef c9          	pxor   %xmm1,%xmm1
 20d:	f3 0f 2a 43 0c       	cvtsi2ssl 0xc(%rbx),%xmm0
 212:	f3 0f 2a 4b 08       	cvtsi2ssl 0x8(%rbx),%xmm1
 217:	e8 00 00 00 00       	callq  21c <_ZN6blocks10moveBlocksEPS_+0x21c>
 21c:	66 0f ef c0          	pxor   %xmm0,%xmm0
 220:	48 8d bb 80 01 00 00 	lea    0x180(%rbx),%rdi
 227:	66 0f ef c9          	pxor   %xmm1,%xmm1
 22b:	48 81 c3 d0 02 00 00 	add    $0x2d0,%rbx
 232:	f3 0f 2a 83 4c fd ff 	cvtsi2ssl -0x2b4(%rbx),%xmm0
 239:	ff 
 23a:	f3 0f 2a 8b 48 fd ff 	cvtsi2ssl -0x2b8(%rbx),%xmm1
 241:	ff 
 242:	e8 00 00 00 00       	callq  247 <_ZN6blocks10moveBlocksEPS_+0x247>
 247:	44 39 35 00 00 00 00 	cmp    %r14d,0x0(%rip)        # 24e <_ZN6blocks10moveBlocksEPS_+0x24e>
 24e:	0f 8e bc 00 00 00    	jle    310 <_ZN6blocks10moveBlocksEPS_+0x310>
 254:	8b 05 00 00 00 00    	mov    0x0(%rip),%eax        # 25a <_ZN6blocks10moveBlocksEPS_+0x25a>
 25a:	44 8b 6b 04          	mov    0x4(%rbx),%r13d
 25e:	be 00 00 00 00       	mov    $0x0,%esi
 263:	bf 00 00 00 00       	mov    $0x0,%edi
 268:	45 0f af ee          	imul   %r14d,%r13d
 26c:	41 01 c5             	add    %eax,%r13d
 26f:	e8 00 00 00 00       	callq  274 <_ZN6blocks10moveBlocksEPS_+0x274>
 274:	85 c0                	test   %eax,%eax
 276:	0f 84 dc fd ff ff    	je     58 <_ZN6blocks10moveBlocksEPS_+0x58>
 27c:	be 00 00 00 00       	mov    $0x0,%esi
 281:	bf 00 00 00 00       	mov    $0x0,%edi
 286:	e8 00 00 00 00       	callq  28b <_ZN6blocks10moveBlocksEPS_+0x28b>
 28b:	85 c0                	test   %eax,%eax
 28d:	0f 84 c5 fd ff ff    	je     58 <_ZN6blocks10moveBlocksEPS_+0x58>
 293:	e9 24 fe ff ff       	jmpq   bc <_ZN6blocks10moveBlocksEPS_+0xbc>
 298:	0f 1f 84 00 00 00 00 	nopl   0x0(%rax,%rax,1)
 29f:	00 
 2a0:	31 d2                	xor    %edx,%edx
 2a2:	41 b8 ff 00 00 00    	mov    $0xff,%r8d
 2a8:	b9 1e 00 00 00       	mov    $0x1e,%ecx
 2ad:	48 89 e7             	mov    %rsp,%rdi
 2b0:	be ff 00 00 00       	mov    $0xff,%esi
 2b5:	e8 00 00 00 00       	callq  2ba <_ZN6blocks10moveBlocksEPS_+0x2ba>
 2ba:	48 89 e6             	mov    %rsp,%rsi
 2bd:	4c 89 e7             	mov    %r12,%rdi
 2c0:	e8 00 00 00 00       	callq  2c5 <_ZN6blocks10moveBlocksEPS_+0x2c5>
 2c5:	41 b8 ff 00 00 00    	mov    $0xff,%r8d
 2cb:	b9 1e 00 00 00       	mov    $0x1e,%ecx
 2d0:	31 d2                	xor    %edx,%edx
 2d2:	48 89 e7             	mov    %rsp,%rdi
 2d5:	be ff 00 00 00       	mov    $0xff,%esi
 2da:	e8 00 00 00 00       	callq  2df <_ZN6blocks10moveBlocksEPS_+0x2df>
 2df:	48 89 e6             	mov    %rsp,%rsi
 2e2:	48 89 ef             	mov    %rbp,%rdi
 2e5:	e8 00 00 00 00       	callq  2ea <_ZN6blocks10moveBlocksEPS_+0x2ea>
 2ea:	4c 89 e7             	mov    %r12,%rdi
 2ed:	be 00 00 00 00       	mov    $0x0,%esi
 2f2:	e8 00 00 00 00       	callq  2f7 <_ZN6blocks10moveBlocksEPS_+0x2f7>
 2f7:	be 00 00 00 00       	mov    $0x0,%esi
 2fc:	48 89 ef             	mov    %rbp,%rdi
 2ff:	e8 00 00 00 00       	callq  304 <_ZN6blocks10moveBlocksEPS_+0x304>
 304:	e9 ca fd ff ff       	jmpq   d3 <_ZN6blocks10moveBlocksEPS_+0xd3>
 309:	0f 1f 80 00 00 00 00 	nopl   0x0(%rax)
 310:	8b 15 00 00 00 00    	mov    0x0(%rip),%edx        # 316 <_ZN6blocks10moveBlocksEPS_+0x316>
 316:	01 15 00 00 00 00    	add    %edx,0x0(%rip)        # 31c <_ZN6blocks10moveBlocksEPS_+0x31c>
 31c:	48 8b 44 24 08       	mov    0x8(%rsp),%rax
 321:	64 48 33 04 25 28 00 	xor    %fs:0x28,%rax
 328:	00 00 
 32a:	75 0d                	jne    339 <_ZN6blocks10moveBlocksEPS_+0x339>
 32c:	48 83 c4 10          	add    $0x10,%rsp
 330:	5b                   	pop    %rbx
 331:	5d                   	pop    %rbp
 332:	41 5c                	pop    %r12
 334:	41 5d                	pop    %r13
 336:	41 5e                	pop    %r14
 338:	c3                   	retq   
 339:	e8 00 00 00 00       	callq  33e <main+0x21e>

Disassembly of section .text._ZN3fly9setValuesEiiPKcP6blocksi:

0000000000000000 <_ZN3fly9setValuesEiiPKcP6blocksi>:
   0:	41 55                	push   %r13
   2:	41 54                	push   %r12
   4:	55                   	push   %rbp
   5:	53                   	push   %rbx
   6:	48 89 fb             	mov    %rdi,%rbx
   9:	4c 8d 6b 10          	lea    0x10(%rbx),%r13
   d:	44 89 cd             	mov    %r9d,%ebp
  10:	48 83 ec 48          	sub    $0x48,%rsp
  14:	89 77 04             	mov    %esi,0x4(%rdi)
  17:	48 89 ce             	mov    %rcx,%rsi
  1a:	64 48 8b 04 25 28 00 	mov    %fs:0x28,%rax
  21:	00 00 
  23:	48 89 44 24 38       	mov    %rax,0x38(%rsp)
  28:	31 c0                	xor    %eax,%eax
  2a:	41 8b 80 d8 02 00 00 	mov    0x2d8(%r8),%eax
  31:	41 03 80 e8 02 00 00 	add    0x2e8(%r8),%eax
  38:	c7 44 24 20 00 00 00 	movl   $0x0,0x20(%rsp)
  3f:	00 
  40:	c7 44 24 24 00 00 00 	movl   $0x0,0x24(%rsp)
  47:	00 
  48:	c7 44 24 28 00 00 00 	movl   $0x0,0x28(%rsp)
  4f:	00 
  50:	c7 44 24 2c 00 00 00 	movl   $0x0,0x2c(%rsp)
  57:	00 
  58:	89 c2                	mov    %eax,%edx
  5a:	c1 ea 1f             	shr    $0x1f,%edx
  5d:	01 d0                	add    %edx,%eax
  5f:	48 8d 54 24 0e       	lea    0xe(%rsp),%rdx
  64:	d1 f8                	sar    %eax
  66:	89 47 08             	mov    %eax,0x8(%rdi)
  69:	48 8d 7c 24 10       	lea    0x10(%rsp),%rdi
  6e:	e8 00 00 00 00       	callq  73 <_ZN3fly9setValuesEiiPKcP6blocksi+0x73>
  73:	48 8d 54 24 20       	lea    0x20(%rsp),%rdx
  78:	48 8d 74 24 10       	lea    0x10(%rsp),%rsi
  7d:	4c 89 ef             	mov    %r13,%rdi
  80:	e8 00 00 00 00       	callq  85 <_ZN3fly9setValuesEiiPKcP6blocksi+0x85>
  85:	48 8b 44 24 10       	mov    0x10(%rsp),%rax
  8a:	48 8d 78 e8          	lea    -0x18(%rax),%rdi
  8e:	48 81 ff 00 00 00 00 	cmp    $0x0,%rdi
  95:	0f 85 a5 00 00 00    	jne    140 <_ZN3fly9setValuesEiiPKcP6blocksi+0x140>
  9b:	4c 8d 63 38          	lea    0x38(%rbx),%r12
  9f:	31 d2                	xor    %edx,%edx
  a1:	4c 89 ee             	mov    %r13,%rsi
  a4:	4c 89 e7             	mov    %r12,%rdi
  a7:	e8 00 00 00 00       	callq  ac <_ZN3fly9setValuesEiiPKcP6blocksi+0xac>
  ac:	85 ed                	test   %ebp,%ebp
  ae:	89 6b 30             	mov    %ebp,0x30(%rbx)
  b1:	74 6d                	je     120 <_ZN3fly9setValuesEiiPKcP6blocksi+0x120>
  b3:	83 fd 01             	cmp    $0x1,%ebp
  b6:	74 78                	je     130 <_ZN3fly9setValuesEiiPKcP6blocksi+0x130>
  b8:	83 fd 02             	cmp    $0x2,%ebp
  bb:	75 1b                	jne    d8 <_ZN3fly9setValuesEiiPKcP6blocksi+0xd8>
  bd:	c7 05 00 00 00 00 0a 	movl   $0xa,0x0(%rip)        # c7 <_ZN3fly9setValuesEiiPKcP6blocksi+0xc7>
  c4:	00 00 00 
  c7:	c7 05 00 00 00 00 00 	movl   $0xc3480000,0x0(%rip)        # d1 <_ZN3fly9setValuesEiiPKcP6blocksi+0xd1>
  ce:	00 48 c3 
  d1:	0f 1f 80 00 00 00 00 	nopl   0x0(%rax)
  d8:	48 8d 7c 24 20       	lea    0x20(%rsp),%rdi
  dd:	41 b8 ff 00 00 00    	mov    $0xff,%r8d
  e3:	b9 ff 00 00 00       	mov    $0xff,%ecx
  e8:	ba ff 00 00 00       	mov    $0xff,%edx
  ed:	be ff 00 00 00       	mov    $0xff,%esi
  f2:	e8 00 00 00 00       	callq  f7 <_ZN3fly9setValuesEiiPKcP6blocksi+0xf7>
  f7:	48 8d 74 24 20       	lea    0x20(%rsp),%rsi
  fc:	4c 89 e7             	mov    %r12,%rdi
  ff:	e8 00 00 00 00       	callq  104 <_ZN3fly9setValuesEiiPKcP6blocksi+0x104>
 104:	48 8b 44 24 38       	mov    0x38(%rsp),%rax
 109:	64 48 33 04 25 28 00 	xor    %fs:0x28,%rax
 110:	00 00 
 112:	75 69                	jne    17d <_ZN3fly9setValuesEiiPKcP6blocksi+0x17d>
 114:	48 83 c4 48          	add    $0x48,%rsp
 118:	5b                   	pop    %rbx
 119:	5d                   	pop    %rbp
 11a:	41 5c                	pop    %r12
 11c:	41 5d                	pop    %r13
 11e:	c3                   	retq   
 11f:	90                   	nop
 120:	c7 05 00 00 00 00 19 	movl   $0x19,0x0(%rip)        # 12a <_ZN3fly9setValuesEiiPKcP6blocksi+0x12a>
 127:	00 00 00 
 12a:	eb ac                	jmp    d8 <_ZN3fly9setValuesEiiPKcP6blocksi+0xd8>
 12c:	0f 1f 40 00          	nopl   0x0(%rax)
 130:	c7 05 00 00 00 00 0f 	movl   $0xf,0x0(%rip)        # 13a <_ZN3fly9setValuesEiiPKcP6blocksi+0x13a>
 137:	00 00 00 
 13a:	eb 9c                	jmp    d8 <_ZN3fly9setValuesEiiPKcP6blocksi+0xd8>
 13c:	0f 1f 40 00          	nopl   0x0(%rax)
 140:	ba 00 00 00 00       	mov    $0x0,%edx
 145:	48 85 d2             	test   %rdx,%rdx
 148:	74 26                	je     170 <_ZN3fly9setValuesEiiPKcP6blocksi+0x170>
 14a:	ba ff ff ff ff       	mov    $0xffffffff,%edx
 14f:	f0 0f c1 50 f8       	lock xadd %edx,-0x8(%rax)
 154:	89 d0                	mov    %edx,%eax
 156:	85 c0                	test   %eax,%eax
 158:	0f 8f 3d ff ff ff    	jg     9b <_ZN3fly9setValuesEiiPKcP6blocksi+0x9b>
 15e:	48 8d 74 24 0f       	lea    0xf(%rsp),%rsi
 163:	e8 00 00 00 00       	callq  168 <_ZN3fly9setValuesEiiPKcP6blocksi+0x168>
 168:	e9 2e ff ff ff       	jmpq   9b <_ZN3fly9setValuesEiiPKcP6blocksi+0x9b>
 16d:	0f 1f 00             	nopl   (%rax)
 170:	8b 50 f8             	mov    -0x8(%rax),%edx
 173:	8d 4a ff             	lea    -0x1(%rdx),%ecx
 176:	89 48 f8             	mov    %ecx,-0x8(%rax)
 179:	89 d0                	mov    %edx,%eax
 17b:	eb d9                	jmp    156 <_ZN3fly9setValuesEiiPKcP6blocksi+0x156>
 17d:	e8 00 00 00 00       	callq  182 <_ZN3fly9setValuesEiiPKcP6blocksi+0x182>
 182:	48 89 c3             	mov    %rax,%rbx
 185:	48 8b 44 24 10       	mov    0x10(%rsp),%rax
 18a:	48 8d 78 e8          	lea    -0x18(%rax),%rdi
 18e:	48 81 ff 00 00 00 00 	cmp    $0x0,%rdi
 195:	74 0a                	je     1a1 <_ZN3fly9setValuesEiiPKcP6blocksi+0x1a1>
 197:	48 8d 74 24 0f       	lea    0xf(%rsp),%rsi
 19c:	e8 00 00 00 00       	callq  1a1 <_ZN3fly9setValuesEiiPKcP6blocksi+0x1a1>
 1a1:	48 89 df             	mov    %rbx,%rdi
 1a4:	e8 00 00 00 00       	callq  1a9 <main+0x89>

Disassembly of section .text._ZN3flyD2Ev:

0000000000000000 <_ZN3flyD1Ev>:
   0:	55                   	push   %rbp
   1:	53                   	push   %rbx
   2:	48 89 fb             	mov    %rdi,%rbx
   5:	48 8d 7f 40          	lea    0x40(%rdi),%rdi
   9:	48 83 ec 08          	sub    $0x8,%rsp
   d:	48 c7 47 f8 00 00 00 	movq   $0x0,-0x8(%rdi)
  14:	00 
  15:	48 c7 07 00 00 00 00 	movq   $0x0,(%rdi)
  1c:	e8 00 00 00 00       	callq  21 <_ZN3flyD1Ev+0x21>
  21:	48 83 c4 08          	add    $0x8,%rsp
  25:	48 8d 7b 10          	lea    0x10(%rbx),%rdi
  29:	5b                   	pop    %rbx
  2a:	5d                   	pop    %rbp
  2b:	e9 00 00 00 00       	jmpq   30 <_ZN3flyD1Ev+0x30>
  30:	48 89 c5             	mov    %rax,%rbp
  33:	48 8d 7b 10          	lea    0x10(%rbx),%rdi
  37:	e8 00 00 00 00       	callq  3c <_ZN3flyD1Ev+0x3c>
  3c:	48 89 ef             	mov    %rbp,%rdi
  3f:	e8 00 00 00 00       	callq  44 <_ZNSs4_Rep10_M_disposeERKSaIcE.part.6+0x4>

Disassembly of section .text._ZN8powerupsD2Ev:

0000000000000000 <_ZN8powerupsD1Ev>:
   0:	55                   	push   %rbp
   1:	53                   	push   %rbx
   2:	48 89 fb             	mov    %rdi,%rbx
   5:	48 8d 7f 38          	lea    0x38(%rdi),%rdi
   9:	48 83 ec 08          	sub    $0x8,%rsp
   d:	48 c7 07 00 00 00 00 	movq   $0x0,(%rdi)
  14:	48 c7 47 08 00 00 00 	movq   $0x0,0x8(%rdi)
  1b:	00 
  1c:	e8 00 00 00 00       	callq  21 <_ZN8powerupsD1Ev+0x21>
  21:	48 83 c4 08          	add    $0x8,%rsp
  25:	48 8d 7b 08          	lea    0x8(%rbx),%rdi
  29:	5b                   	pop    %rbx
  2a:	5d                   	pop    %rbp
  2b:	e9 00 00 00 00       	jmpq   30 <_ZN8powerupsD1Ev+0x30>
  30:	48 89 c5             	mov    %rax,%rbp
  33:	48 8d 7b 08          	lea    0x8(%rbx),%rdi
  37:	e8 00 00 00 00       	callq  3c <_ZN8powerupsD1Ev+0x3c>
  3c:	48 89 ef             	mov    %rbp,%rdi
  3f:	e8 00 00 00 00       	callq  44 <_ZNSs4_Rep10_M_disposeERKSaIcE.part.6+0x4>

Disassembly of section .text._ZStplIcSt11char_traitsIcESaIcEESbIT_T0_T1_EPKS3_RKS6_:

0000000000000000 <_ZStplIcSt11char_traitsIcESaIcEESbIT_T0_T1_EPKS3_RKS6_>:
   0:	41 55                	push   %r13
   2:	41 54                	push   %r12
   4:	49 89 f4             	mov    %rsi,%r12
   7:	55                   	push   %rbp
   8:	53                   	push   %rbx
   9:	48 89 d5             	mov    %rdx,%rbp
   c:	48 89 fb             	mov    %rdi,%rbx
   f:	48 89 f7             	mov    %rsi,%rdi
  12:	48 83 ec 18          	sub    $0x18,%rsp
  16:	64 48 8b 04 25 28 00 	mov    %fs:0x28,%rax
  1d:	00 00 
  1f:	48 89 44 24 08       	mov    %rax,0x8(%rsp)
  24:	31 c0                	xor    %eax,%eax
  26:	e8 00 00 00 00       	callq  2b <_ZStplIcSt11char_traitsIcESaIcEESbIT_T0_T1_EPKS3_RKS6_+0x2b>
  2b:	48 c7 03 00 00 00 00 	movq   $0x0,(%rbx)
  32:	49 89 c5             	mov    %rax,%r13
  35:	48 8b 45 00          	mov    0x0(%rbp),%rax
  39:	4c 89 ee             	mov    %r13,%rsi
  3c:	48 89 df             	mov    %rbx,%rdi
  3f:	48 03 70 e8          	add    -0x18(%rax),%rsi
  43:	e8 00 00 00 00       	callq  48 <_ZStplIcSt11char_traitsIcESaIcEESbIT_T0_T1_EPKS3_RKS6_+0x48>
  48:	4c 89 ea             	mov    %r13,%rdx
  4b:	4c 89 e6             	mov    %r12,%rsi
  4e:	48 89 df             	mov    %rbx,%rdi
  51:	e8 00 00 00 00       	callq  56 <_ZStplIcSt11char_traitsIcESaIcEESbIT_T0_T1_EPKS3_RKS6_+0x56>
  56:	48 89 ee             	mov    %rbp,%rsi
  59:	48 89 df             	mov    %rbx,%rdi
  5c:	e8 00 00 00 00       	callq  61 <_ZStplIcSt11char_traitsIcESaIcEESbIT_T0_T1_EPKS3_RKS6_+0x61>
  61:	48 8b 4c 24 08       	mov    0x8(%rsp),%rcx
  66:	64 48 33 0c 25 28 00 	xor    %fs:0x28,%rcx
  6d:	00 00 
  6f:	48 89 d8             	mov    %rbx,%rax
  72:	75 0b                	jne    7f <_ZStplIcSt11char_traitsIcESaIcEESbIT_T0_T1_EPKS3_RKS6_+0x7f>
  74:	48 83 c4 18          	add    $0x18,%rsp
  78:	5b                   	pop    %rbx
  79:	5d                   	pop    %rbp
  7a:	41 5c                	pop    %r12
  7c:	41 5d                	pop    %r13
  7e:	c3                   	retq   
  7f:	e8 00 00 00 00       	callq  84 <_ZStplIcSt11char_traitsIcESaIcEESbIT_T0_T1_EPKS3_RKS6_+0x84>
  84:	48 89 c5             	mov    %rax,%rbp
  87:	48 8b 13             	mov    (%rbx),%rdx
  8a:	48 8d 7a e8          	lea    -0x18(%rdx),%rdi
  8e:	48 81 ff 00 00 00 00 	cmp    $0x0,%rdi
  95:	74 0a                	je     a1 <_ZStplIcSt11char_traitsIcESaIcEESbIT_T0_T1_EPKS3_RKS6_+0xa1>
  97:	48 8d 74 24 07       	lea    0x7(%rsp),%rsi
  9c:	e8 00 00 00 00       	callq  a1 <_ZStplIcSt11char_traitsIcESaIcEESbIT_T0_T1_EPKS3_RKS6_+0xa1>
  a1:	48 89 ef             	mov    %rbp,%rdi
  a4:	e8 00 00 00 00       	callq  a9 <_ZThn8_N2sf4TextD0Ev+0x19>

Disassembly of section .text._ZStplIcSt11char_traitsIcESaIcEESbIT_T0_T1_ERKS6_PKS3_:

0000000000000000 <_ZStplIcSt11char_traitsIcESaIcEESbIT_T0_T1_ERKS6_PKS3_>:
   0:	55                   	push   %rbp
   1:	53                   	push   %rbx
   2:	48 89 d5             	mov    %rdx,%rbp
   5:	48 89 fb             	mov    %rdi,%rbx
   8:	48 83 ec 18          	sub    $0x18,%rsp
   c:	64 48 8b 04 25 28 00 	mov    %fs:0x28,%rax
  13:	00 00 
  15:	48 89 44 24 08       	mov    %rax,0x8(%rsp)
  1a:	31 c0                	xor    %eax,%eax
  1c:	e8 00 00 00 00       	callq  21 <_ZStplIcSt11char_traitsIcESaIcEESbIT_T0_T1_ERKS6_PKS3_+0x21>
  21:	48 89 ef             	mov    %rbp,%rdi
  24:	e8 00 00 00 00       	callq  29 <_ZStplIcSt11char_traitsIcESaIcEESbIT_T0_T1_ERKS6_PKS3_+0x29>
  29:	48 89 ee             	mov    %rbp,%rsi
  2c:	48 89 c2             	mov    %rax,%rdx
  2f:	48 89 df             	mov    %rbx,%rdi
  32:	e8 00 00 00 00       	callq  37 <_ZStplIcSt11char_traitsIcESaIcEESbIT_T0_T1_ERKS6_PKS3_+0x37>
  37:	48 8b 4c 24 08       	mov    0x8(%rsp),%rcx
  3c:	64 48 33 0c 25 28 00 	xor    %fs:0x28,%rcx
  43:	00 00 
  45:	48 89 d8             	mov    %rbx,%rax
  48:	75 07                	jne    51 <_ZStplIcSt11char_traitsIcESaIcEESbIT_T0_T1_ERKS6_PKS3_+0x51>
  4a:	48 83 c4 18          	add    $0x18,%rsp
  4e:	5b                   	pop    %rbx
  4f:	5d                   	pop    %rbp
  50:	c3                   	retq   
  51:	e8 00 00 00 00       	callq  56 <_ZStplIcSt11char_traitsIcESaIcEESbIT_T0_T1_ERKS6_PKS3_+0x56>
  56:	48 89 c5             	mov    %rax,%rbp
  59:	48 8b 13             	mov    (%rbx),%rdx
  5c:	48 8d 7a e8          	lea    -0x18(%rdx),%rdi
  60:	48 81 ff 00 00 00 00 	cmp    $0x0,%rdi
  67:	74 0a                	je     73 <_ZStplIcSt11char_traitsIcESaIcEESbIT_T0_T1_ERKS6_PKS3_+0x73>
  69:	48 8d 74 24 07       	lea    0x7(%rsp),%rsi
  6e:	e8 00 00 00 00       	callq  73 <_ZStplIcSt11char_traitsIcESaIcEESbIT_T0_T1_ERKS6_PKS3_+0x73>
  73:	48 89 ef             	mov    %rbp,%rdi
  76:	e8 00 00 00 00       	callq  7b <_ZNSs4_Rep10_M_disposeERKSaIcE.part.6+0x3b>

Disassembly of section .text._ZStplIcSt11char_traitsIcESaIcEESbIT_T0_T1_ERKS6_S8_:

0000000000000000 <_ZStplIcSt11char_traitsIcESaIcEESbIT_T0_T1_ERKS6_S8_>:
   0:	55                   	push   %rbp
   1:	53                   	push   %rbx
   2:	48 89 d5             	mov    %rdx,%rbp
   5:	48 89 fb             	mov    %rdi,%rbx
   8:	48 83 ec 18          	sub    $0x18,%rsp
   c:	64 48 8b 04 25 28 00 	mov    %fs:0x28,%rax
  13:	00 00 
  15:	48 89 44 24 08       	mov    %rax,0x8(%rsp)
  1a:	31 c0                	xor    %eax,%eax
  1c:	e8 00 00 00 00       	callq  21 <_ZStplIcSt11char_traitsIcESaIcEESbIT_T0_T1_ERKS6_S8_+0x21>
  21:	48 89 ee             	mov    %rbp,%rsi
  24:	48 89 df             	mov    %rbx,%rdi
  27:	e8 00 00 00 00       	callq  2c <_ZStplIcSt11char_traitsIcESaIcEESbIT_T0_T1_ERKS6_S8_+0x2c>
  2c:	48 8b 4c 24 08       	mov    0x8(%rsp),%rcx
  31:	64 48 33 0c 25 28 00 	xor    %fs:0x28,%rcx
  38:	00 00 
  3a:	48 89 d8             	mov    %rbx,%rax
  3d:	75 07                	jne    46 <_ZStplIcSt11char_traitsIcESaIcEESbIT_T0_T1_ERKS6_S8_+0x46>
  3f:	48 83 c4 18          	add    $0x18,%rsp
  43:	5b                   	pop    %rbx
  44:	5d                   	pop    %rbp
  45:	c3                   	retq   
  46:	e8 00 00 00 00       	callq  4b <_ZStplIcSt11char_traitsIcESaIcEESbIT_T0_T1_ERKS6_S8_+0x4b>
  4b:	48 89 c5             	mov    %rax,%rbp
  4e:	48 8b 13             	mov    (%rbx),%rdx
  51:	48 8d 7a e8          	lea    -0x18(%rdx),%rdi
  55:	48 81 ff 00 00 00 00 	cmp    $0x0,%rdi
  5c:	74 0a                	je     68 <_ZStplIcSt11char_traitsIcESaIcEESbIT_T0_T1_ERKS6_S8_+0x68>
  5e:	48 8d 74 24 07       	lea    0x7(%rsp),%rsi
  63:	e8 00 00 00 00       	callq  68 <_ZStplIcSt11char_traitsIcESaIcEESbIT_T0_T1_ERKS6_S8_+0x68>
  68:	48 89 ef             	mov    %rbp,%rdi
  6b:	e8 00 00 00 00       	callq  70 <_ZNSs4_Rep10_M_disposeERKSaIcE.part.6+0x30>

Disassembly of section .text._ZN6blocks13getBlockCountEv:

0000000000000000 <_ZN6blocks13getBlockCountEv>:
   0:	41 54                	push   %r12
   2:	55                   	push   %rbp
   3:	be 00 00 00 00       	mov    $0x0,%esi
   8:	53                   	push   %rbx
   9:	ba 00 00 00 00       	mov    $0x0,%edx
   e:	48 81 ec 40 02 00 00 	sub    $0x240,%rsp
  15:	48 8d 7c 24 20       	lea    0x20(%rsp),%rdi
  1a:	64 48 8b 04 25 28 00 	mov    %fs:0x28,%rax
  21:	00 00 
  23:	48 89 84 24 38 02 00 	mov    %rax,0x238(%rsp)
  2a:	00 
  2b:	31 c0                	xor    %eax,%eax
  2d:	e8 00 00 00 00       	callq  32 <_ZN6blocks13getBlockCountEv+0x32>
  32:	48 8d 74 24 20       	lea    0x20(%rsp),%rsi
  37:	48 8d 7c 24 10       	lea    0x10(%rsp),%rdi
  3c:	e8 00 00 00 00       	callq  41 <_ZN6blocks13getBlockCountEv+0x41>
  41:	48 8d 7c 24 10       	lea    0x10(%rsp),%rdi
  46:	ba 05 00 00 00       	mov    $0x5,%edx
  4b:	be 00 00 00 00       	mov    $0x0,%esi
  50:	e8 00 00 00 00       	callq  55 <_ZN6blocks13getBlockCountEv+0x55>
  55:	48 8b 44 24 20       	mov    0x20(%rsp),%rax
  5a:	48 8d 78 e8          	lea    -0x18(%rax),%rdi
  5e:	48 81 ff 00 00 00 00 	cmp    $0x0,%rdi
  65:	0f 85 15 02 00 00    	jne    280 <_ZN6blocks13getBlockCountEv+0x280>
  6b:	48 8d bc 24 30 01 00 	lea    0x130(%rsp),%rdi
  72:	00 
  73:	4c 8b 64 24 10       	mov    0x10(%rsp),%r12
  78:	e8 00 00 00 00       	callq  7d <_ZN6blocks13getBlockCountEv+0x7d>
  7d:	48 8b 1d 00 00 00 00 	mov    0x0(%rip),%rbx        # 84 <_ZN6blocks13getBlockCountEv+0x84>
  84:	c6 84 24 10 02 00 00 	movb   $0x0,0x210(%rsp)
  8b:	00 
  8c:	48 8d 7c 24 30       	lea    0x30(%rsp),%rdi
  91:	48 8b 2d 00 00 00 00 	mov    0x0(%rip),%rbp        # 98 <_ZN6blocks13getBlockCountEv+0x98>
  98:	48 c7 84 24 30 01 00 	movq   $0x0,0x130(%rsp)
  9f:	00 00 00 00 00 
  a4:	31 f6                	xor    %esi,%esi
  a6:	48 c7 84 24 08 02 00 	movq   $0x0,0x208(%rsp)
  ad:	00 00 00 00 00 
  b2:	c6 84 24 11 02 00 00 	movb   $0x0,0x211(%rsp)
  b9:	00 
  ba:	48 8b 43 e8          	mov    -0x18(%rbx),%rax
  be:	48 c7 84 24 18 02 00 	movq   $0x0,0x218(%rsp)
  c5:	00 00 00 00 00 
  ca:	48 c7 84 24 20 02 00 	movq   $0x0,0x220(%rsp)
  d1:	00 00 00 00 00 
  d6:	48 c7 84 24 28 02 00 	movq   $0x0,0x228(%rsp)
  dd:	00 00 00 00 00 
  e2:	48 c7 84 24 30 02 00 	movq   $0x0,0x230(%rsp)
  e9:	00 00 00 00 00 
  ee:	48 89 5c 24 30       	mov    %rbx,0x30(%rsp)
  f3:	48 89 6c 04 30       	mov    %rbp,0x30(%rsp,%rax,1)
  f8:	48 c7 44 24 38 00 00 	movq   $0x0,0x38(%rsp)
  ff:	00 00 
 101:	48 03 7b e8          	add    -0x18(%rbx),%rdi
 105:	e8 00 00 00 00       	callq  10a <_ZN6blocks13getBlockCountEv+0x10a>
 10a:	48 8d 44 24 30       	lea    0x30(%rsp),%rax
 10f:	48 c7 44 24 30 00 00 	movq   $0x0,0x30(%rsp)
 116:	00 00 
 118:	48 c7 84 24 30 01 00 	movq   $0x0,0x130(%rsp)
 11f:	00 00 00 00 00 
 124:	48 8d 78 10          	lea    0x10(%rax),%rdi
 128:	e8 00 00 00 00       	callq  12d <_ZN6blocks13getBlockCountEv+0x12d>
 12d:	48 8d 44 24 30       	lea    0x30(%rsp),%rax
 132:	48 8d 74 24 40       	lea    0x40(%rsp),%rsi
 137:	48 8d b8 00 01 00 00 	lea    0x100(%rax),%rdi
 13e:	e8 00 00 00 00       	callq  143 <_ZN6blocks13getBlockCountEv+0x143>
 143:	48 8d 44 24 30       	lea    0x30(%rsp),%rax
 148:	ba 08 00 00 00       	mov    $0x8,%edx
 14d:	4c 89 e6             	mov    %r12,%rsi
 150:	48 8d 78 10          	lea    0x10(%rax),%rdi
 154:	e8 00 00 00 00       	callq  159 <_ZN6blocks13getBlockCountEv+0x159>
 159:	48 85 c0             	test   %rax,%rax
 15c:	48 8d 7c 24 30       	lea    0x30(%rsp),%rdi
 161:	48 8b 44 24 30       	mov    0x30(%rsp),%rax
 166:	0f 84 cc 00 00 00    	je     238 <_ZN6blocks13getBlockCountEv+0x238>
 16c:	48 03 78 e8          	add    -0x18(%rax),%rdi
 170:	31 f6                	xor    %esi,%esi
 172:	e8 00 00 00 00       	callq  177 <_ZN6blocks13getBlockCountEv+0x177>
 177:	48 8d 7c 24 30       	lea    0x30(%rsp),%rdi
 17c:	be 00 00 00 00       	mov    $0x0,%esi
 181:	e8 00 00 00 00       	callq  186 <_ZN6blocks13getBlockCountEv+0x186>
 186:	48 8d 44 24 30       	lea    0x30(%rsp),%rax
 18b:	48 c7 44 24 30 00 00 	movq   $0x0,0x30(%rsp)
 192:	00 00 
 194:	48 c7 84 24 30 01 00 	movq   $0x0,0x130(%rsp)
 19b:	00 00 00 00 00 
 1a0:	48 c7 44 24 40 00 00 	movq   $0x0,0x40(%rsp)
 1a7:	00 00 
 1a9:	48 8d 78 10          	lea    0x10(%rax),%rdi
 1ad:	e8 00 00 00 00       	callq  1b2 <_ZN6blocks13getBlockCountEv+0x1b2>
 1b2:	48 8d 44 24 30       	lea    0x30(%rsp),%rax
 1b7:	48 8d 78 78          	lea    0x78(%rax),%rdi
 1bb:	e8 00 00 00 00       	callq  1c0 <_ZN6blocks13getBlockCountEv+0x1c0>
 1c0:	48 8d 7c 24 78       	lea    0x78(%rsp),%rdi
 1c5:	48 c7 44 24 40 00 00 	movq   $0x0,0x40(%rsp)
 1cc:	00 00 
 1ce:	e8 00 00 00 00       	callq  1d3 <_ZN6blocks13getBlockCountEv+0x1d3>
 1d3:	48 8b 43 e8          	mov    -0x18(%rbx),%rax
 1d7:	48 89 5c 24 30       	mov    %rbx,0x30(%rsp)
 1dc:	48 89 6c 04 30       	mov    %rbp,0x30(%rsp,%rax,1)
 1e1:	48 8d 44 24 30       	lea    0x30(%rsp),%rax
 1e6:	48 c7 84 24 30 01 00 	movq   $0x0,0x130(%rsp)
 1ed:	00 00 00 00 00 
 1f2:	48 8d b8 00 01 00 00 	lea    0x100(%rax),%rdi
 1f9:	e8 00 00 00 00       	callq  1fe <_ZN6blocks13getBlockCountEv+0x1fe>
 1fe:	48 8b 44 24 10       	mov    0x10(%rsp),%rax
 203:	48 8d 78 e8          	lea    -0x18(%rax),%rdi
 207:	48 81 ff 00 00 00 00 	cmp    $0x0,%rdi
 20e:	75 40                	jne    250 <_ZN6blocks13getBlockCountEv+0x250>
 210:	48 8b 84 24 38 02 00 	mov    0x238(%rsp),%rax
 217:	00 
 218:	64 48 33 04 25 28 00 	xor    %fs:0x28,%rax
 21f:	00 00 
 221:	0f 85 a6 00 00 00    	jne    2cd <_ZN6blocks13getBlockCountEv+0x2cd>
 227:	48 81 c4 40 02 00 00 	add    $0x240,%rsp
 22e:	5b                   	pop    %rbx
 22f:	5d                   	pop    %rbp
 230:	41 5c                	pop    %r12
 232:	c3                   	retq   
 233:	0f 1f 44 00 00       	nopl   0x0(%rax,%rax,1)
 238:	48 03 78 e8          	add    -0x18(%rax),%rdi
 23c:	8b 77 20             	mov    0x20(%rdi),%esi
 23f:	83 ce 04             	or     $0x4,%esi
 242:	e8 00 00 00 00       	callq  247 <_ZN6blocks13getBlockCountEv+0x247>
 247:	e9 2b ff ff ff       	jmpq   177 <_ZN6blocks13getBlockCountEv+0x177>
 24c:	0f 1f 40 00          	nopl   0x0(%rax)
 250:	ba 00 00 00 00       	mov    $0x0,%edx
 255:	48 85 d2             	test   %rdx,%rdx
 258:	74 66                	je     2c0 <_ZN6blocks13getBlockCountEv+0x2c0>
 25a:	ba ff ff ff ff       	mov    $0xffffffff,%edx
 25f:	f0 0f c1 50 f8       	lock xadd %edx,-0x8(%rax)
 264:	89 d0                	mov    %edx,%eax
 266:	85 c0                	test   %eax,%eax
 268:	7f a6                	jg     210 <_ZN6blocks13getBlockCountEv+0x210>
 26a:	48 8d 74 24 20       	lea    0x20(%rsp),%rsi
 26f:	e8 00 00 00 00       	callq  274 <_ZN6blocks13getBlockCountEv+0x274>
 274:	eb 9a                	jmp    210 <_ZN6blocks13getBlockCountEv+0x210>
 276:	66 2e 0f 1f 84 00 00 	nopw   %cs:0x0(%rax,%rax,1)
 27d:	00 00 00 
 280:	ba 00 00 00 00       	mov    $0x0,%edx
 285:	48 85 d2             	test   %rdx,%rdx
 288:	74 26                	je     2b0 <_ZN6blocks13getBlockCountEv+0x2b0>
 28a:	ba ff ff ff ff       	mov    $0xffffffff,%edx
 28f:	f0 0f c1 50 f8       	lock xadd %edx,-0x8(%rax)
 294:	89 d0                	mov    %edx,%eax
 296:	85 c0                	test   %eax,%eax
 298:	0f 8f cd fd ff ff    	jg     6b <_ZN6blocks13getBlockCountEv+0x6b>
 29e:	48 8d 74 24 0f       	lea    0xf(%rsp),%rsi
 2a3:	e8 00 00 00 00       	callq  2a8 <_ZN6blocks13getBlockCountEv+0x2a8>
 2a8:	e9 be fd ff ff       	jmpq   6b <_ZN6blocks13getBlockCountEv+0x6b>
 2ad:	0f 1f 00             	nopl   (%rax)
 2b0:	8b 50 f8             	mov    -0x8(%rax),%edx
 2b3:	8d 4a ff             	lea    -0x1(%rdx),%ecx
 2b6:	89 48 f8             	mov    %ecx,-0x8(%rax)
 2b9:	89 d0                	mov    %edx,%eax
 2bb:	eb d9                	jmp    296 <_ZN6blocks13getBlockCountEv+0x296>
 2bd:	0f 1f 00             	nopl   (%rax)
 2c0:	8b 50 f8             	mov    -0x8(%rax),%edx
 2c3:	8d 4a ff             	lea    -0x1(%rdx),%ecx
 2c6:	89 48 f8             	mov    %ecx,-0x8(%rax)
 2c9:	89 d0                	mov    %edx,%eax
 2cb:	eb 99                	jmp    266 <_ZN6blocks13getBlockCountEv+0x266>
 2cd:	e8 00 00 00 00       	callq  2d2 <_ZN6blocks13getBlockCountEv+0x2d2>
 2d2:	48 89 c3             	mov    %rax,%rbx
 2d5:	eb 4c                	jmp    323 <_ZN6blocks13getBlockCountEv+0x323>
 2d7:	49 89 c4             	mov    %rax,%r12
 2da:	eb 29                	jmp    305 <_ZN6blocks13getBlockCountEv+0x305>
 2dc:	48 89 c3             	mov    %rax,%rbx
 2df:	e9 c8 00 00 00       	jmpq   3ac <_ZN6blocks13getBlockCountEv+0x3ac>
 2e4:	49 89 c4             	mov    %rax,%r12
 2e7:	eb 77                	jmp    360 <_ZN6blocks13getBlockCountEv+0x360>
 2e9:	48 89 c3             	mov    %rax,%rbx
 2ec:	eb 4e                	jmp    33c <_ZN6blocks13getBlockCountEv+0x33c>
 2ee:	eb 22                	jmp    312 <_ZN6blocks13getBlockCountEv+0x312>
 2f0:	48 89 c3             	mov    %rax,%rbx
 2f3:	e9 d0 00 00 00       	jmpq   3c8 <_ZN6blocks13getBlockCountEv+0x3c8>
 2f8:	48 89 c3             	mov    %rax,%rbx
 2fb:	e9 ed 00 00 00       	jmpq   3ed <_ZN6blocks13getBlockCountEv+0x3ed>
 300:	49 89 c4             	mov    %rax,%r12
 303:	eb 68                	jmp    36d <_ZN6blocks13getBlockCountEv+0x36d>
 305:	48 8d 7c 24 40       	lea    0x40(%rsp),%rdi
 30a:	e8 00 00 00 00       	callq  30f <_ZN6blocks13getBlockCountEv+0x30f>
 30f:	4c 89 e0             	mov    %r12,%rax
 312:	48 8b 53 e8          	mov    -0x18(%rbx),%rdx
 316:	48 89 5c 24 30       	mov    %rbx,0x30(%rsp)
 31b:	48 89 c3             	mov    %rax,%rbx
 31e:	48 89 6c 14 30       	mov    %rbp,0x30(%rsp,%rdx,1)
 323:	48 8d bc 24 30 01 00 	lea    0x130(%rsp),%rdi
 32a:	00 
 32b:	48 c7 84 24 30 01 00 	movq   $0x0,0x130(%rsp)
 332:	00 00 00 00 00 
 337:	e8 00 00 00 00       	callq  33c <_ZN6blocks13getBlockCountEv+0x33c>
 33c:	48 8b 44 24 10       	mov    0x10(%rsp),%rax
 341:	48 8d 78 e8          	lea    -0x18(%rax),%rdi
 345:	48 81 ff 00 00 00 00 	cmp    $0x0,%rdi
 34c:	74 0a                	je     358 <_ZN6blocks13getBlockCountEv+0x358>
 34e:	48 8d 74 24 20       	lea    0x20(%rsp),%rsi
 353:	e8 00 00 00 00       	callq  358 <_ZN6blocks13getBlockCountEv+0x358>
 358:	48 89 df             	mov    %rbx,%rdi
 35b:	e8 00 00 00 00       	callq  360 <_ZN6blocks13getBlockCountEv+0x360>
 360:	48 8d bc 24 a8 00 00 	lea    0xa8(%rsp),%rdi
 367:	00 
 368:	e8 00 00 00 00       	callq  36d <_ZN6blocks13getBlockCountEv+0x36d>
 36d:	48 8d 7c 24 78       	lea    0x78(%rsp),%rdi
 372:	48 c7 44 24 40 00 00 	movq   $0x0,0x40(%rsp)
 379:	00 00 
 37b:	e8 00 00 00 00       	callq  380 <_ZN6blocks13getBlockCountEv+0x380>
 380:	48 8b 43 e8          	mov    -0x18(%rbx),%rax
 384:	48 8d bc 24 30 01 00 	lea    0x130(%rsp),%rdi
 38b:	00 
 38c:	48 89 5c 24 30       	mov    %rbx,0x30(%rsp)
 391:	4c 89 e3             	mov    %r12,%rbx
 394:	48 89 6c 04 30       	mov    %rbp,0x30(%rsp,%rax,1)
 399:	48 c7 84 24 30 01 00 	movq   $0x0,0x130(%rsp)
 3a0:	00 00 00 00 00 
 3a5:	e8 00 00 00 00       	callq  3aa <_ZN6blocks13getBlockCountEv+0x3aa>
 3aa:	eb 90                	jmp    33c <_ZN6blocks13getBlockCountEv+0x33c>
 3ac:	48 8b 44 24 10       	mov    0x10(%rsp),%rax
 3b1:	48 8d 78 e8          	lea    -0x18(%rax),%rdi
 3b5:	48 81 ff 00 00 00 00 	cmp    $0x0,%rdi
 3bc:	74 0a                	je     3c8 <_ZN6blocks13getBlockCountEv+0x3c8>
 3be:	48 8d 74 24 0f       	lea    0xf(%rsp),%rsi
 3c3:	e8 00 00 00 00       	callq  3c8 <_ZN6blocks13getBlockCountEv+0x3c8>
 3c8:	48 8b 44 24 20       	mov    0x20(%rsp),%rax
 3cd:	48 8d 78 e8          	lea    -0x18(%rax),%rdi
 3d1:	48 81 ff 00 00 00 00 	cmp    $0x0,%rdi
 3d8:	0f 84 7a ff ff ff    	je     358 <_ZN6blocks13getBlockCountEv+0x358>
 3de:	48 8d 74 24 0f       	lea    0xf(%rsp),%rsi
 3e3:	e8 00 00 00 00       	callq  3e8 <_ZN6blocks13getBlockCountEv+0x3e8>
 3e8:	e9 6b ff ff ff       	jmpq   358 <_ZN6blocks13getBlockCountEv+0x358>
 3ed:	48 8d 7c 24 30       	lea    0x30(%rsp),%rdi
 3f2:	e8 00 00 00 00       	callq  3f7 <_ZN6blocks13getBlockCountEv+0x3f7>
 3f7:	e9 40 ff ff ff       	jmpq   33c <_ZN6blocks13getBlockCountEv+0x33c>

Disassembly of section .text._ZN6blocks8fileReadEPS_:

0000000000000000 <_ZN6blocks8fileReadEPS_>:
   0:	41 55                	push   %r13
   2:	41 54                	push   %r12
   4:	be 00 00 00 00       	mov    $0x0,%esi
   9:	55                   	push   %rbp
   a:	53                   	push   %rbx
   b:	48 89 fb             	mov    %rdi,%rbx
   e:	ba 00 00 00 00       	mov    $0x0,%edx
  13:	48 81 ec 48 02 00 00 	sub    $0x248,%rsp
  1a:	48 8d 7c 24 20       	lea    0x20(%rsp),%rdi
  1f:	64 48 8b 04 25 28 00 	mov    %fs:0x28,%rax
  26:	00 00 
  28:	48 89 84 24 38 02 00 	mov    %rax,0x238(%rsp)
  2f:	00 
  30:	31 c0                	xor    %eax,%eax
  32:	e8 00 00 00 00       	callq  37 <_ZN6blocks8fileReadEPS_+0x37>
  37:	48 8d 74 24 20       	lea    0x20(%rsp),%rsi
  3c:	48 8d 7c 24 10       	lea    0x10(%rsp),%rdi
  41:	e8 00 00 00 00       	callq  46 <_ZN6blocks8fileReadEPS_+0x46>
  46:	48 8d 7c 24 10       	lea    0x10(%rsp),%rdi
  4b:	ba 04 00 00 00       	mov    $0x4,%edx
  50:	be 00 00 00 00       	mov    $0x0,%esi
  55:	e8 00 00 00 00       	callq  5a <_ZN6blocks8fileReadEPS_+0x5a>
  5a:	48 8b 44 24 20       	mov    0x20(%rsp),%rax
  5f:	48 8d 78 e8          	lea    -0x18(%rax),%rdi
  63:	48 81 ff 00 00 00 00 	cmp    $0x0,%rdi
  6a:	0f 85 41 02 00 00    	jne    2b1 <_ZN6blocks8fileReadEPS_+0x2b1>
  70:	48 8d bc 24 30 01 00 	lea    0x130(%rsp),%rdi
  77:	00 
  78:	48 8b 6c 24 10       	mov    0x10(%rsp),%rbp
  7d:	e8 00 00 00 00       	callq  82 <_ZN6blocks8fileReadEPS_+0x82>
  82:	4c 8b 25 00 00 00 00 	mov    0x0(%rip),%r12        # 89 <_ZN6blocks8fileReadEPS_+0x89>
  89:	c6 84 24 10 02 00 00 	movb   $0x0,0x210(%rsp)
  90:	00 
  91:	48 8d 7c 24 30       	lea    0x30(%rsp),%rdi
  96:	4c 8b 2d 00 00 00 00 	mov    0x0(%rip),%r13        # 9d <_ZN6blocks8fileReadEPS_+0x9d>
  9d:	48 c7 84 24 30 01 00 	movq   $0x0,0x130(%rsp)
  a4:	00 00 00 00 00 
  a9:	31 f6                	xor    %esi,%esi
  ab:	48 c7 84 24 08 02 00 	movq   $0x0,0x208(%rsp)
  b2:	00 00 00 00 00 
  b7:	c6 84 24 11 02 00 00 	movb   $0x0,0x211(%rsp)
  be:	00 
  bf:	49 8b 44 24 e8       	mov    -0x18(%r12),%rax
  c4:	48 c7 84 24 18 02 00 	movq   $0x0,0x218(%rsp)
  cb:	00 00 00 00 00 
  d0:	48 c7 84 24 20 02 00 	movq   $0x0,0x220(%rsp)
  d7:	00 00 00 00 00 
  dc:	48 c7 84 24 28 02 00 	movq   $0x0,0x228(%rsp)
  e3:	00 00 00 00 00 
  e8:	48 c7 84 24 30 02 00 	movq   $0x0,0x230(%rsp)
  ef:	00 00 00 00 00 
  f4:	4c 89 64 24 30       	mov    %r12,0x30(%rsp)
  f9:	4c 89 6c 04 30       	mov    %r13,0x30(%rsp,%rax,1)
  fe:	48 c7 44 24 38 00 00 	movq   $0x0,0x38(%rsp)
 105:	00 00 
 107:	49 03 7c 24 e8       	add    -0x18(%r12),%rdi
 10c:	e8 00 00 00 00       	callq  111 <_ZN6blocks8fileReadEPS_+0x111>
 111:	48 8d 44 24 30       	lea    0x30(%rsp),%rax
 116:	48 c7 44 24 30 00 00 	movq   $0x0,0x30(%rsp)
 11d:	00 00 
 11f:	48 c7 84 24 30 01 00 	movq   $0x0,0x130(%rsp)
 126:	00 00 00 00 00 
 12b:	48 8d 78 10          	lea    0x10(%rax),%rdi
 12f:	e8 00 00 00 00       	callq  134 <_ZN6blocks8fileReadEPS_+0x134>
 134:	48 8d 44 24 30       	lea    0x30(%rsp),%rax
 139:	48 8d 74 24 40       	lea    0x40(%rsp),%rsi
 13e:	48 8d b8 00 01 00 00 	lea    0x100(%rax),%rdi
 145:	e8 00 00 00 00       	callq  14a <_ZN6blocks8fileReadEPS_+0x14a>
 14a:	48 8d 44 24 30       	lea    0x30(%rsp),%rax
 14f:	ba 08 00 00 00       	mov    $0x8,%edx
 154:	48 89 ee             	mov    %rbp,%rsi
 157:	48 8d 78 10          	lea    0x10(%rax),%rdi
 15b:	e8 00 00 00 00       	callq  160 <_ZN6blocks8fileReadEPS_+0x160>
 160:	48 85 c0             	test   %rax,%rax
 163:	48 8d 7c 24 30       	lea    0x30(%rsp),%rdi
 168:	48 8b 44 24 30       	mov    0x30(%rsp),%rax
 16d:	0f 84 0c 01 00 00    	je     27f <_ZN6blocks8fileReadEPS_+0x27f>
 173:	48 03 78 e8          	add    -0x18(%rax),%rdi
 177:	31 f6                	xor    %esi,%esi
 179:	e8 00 00 00 00       	callq  17e <_ZN6blocks8fileReadEPS_+0x17e>
 17e:	8b 05 00 00 00 00    	mov    0x0(%rip),%eax        # 184 <_ZN6blocks8fileReadEPS_+0x184>
 184:	31 ed                	xor    %ebp,%ebp
 186:	85 c0                	test   %eax,%eax
 188:	7e 2a                	jle    1b4 <_ZN6blocks8fileReadEPS_+0x1b4>
 18a:	66 0f 1f 44 00 00    	nopw   0x0(%rax,%rax,1)
 190:	48 8d 7c 24 30       	lea    0x30(%rsp),%rdi
 195:	ba 20 00 00 00       	mov    $0x20,%edx
 19a:	48 89 de             	mov    %rbx,%rsi
 19d:	e8 00 00 00 00       	callq  1a2 <_ZN6blocks8fileReadEPS_+0x1a2>
 1a2:	83 c5 01             	add    $0x1,%ebp
 1a5:	48 81 c3 d0 02 00 00 	add    $0x2d0,%rbx
 1ac:	39 2d 00 00 00 00    	cmp    %ebp,0x0(%rip)        # 1b2 <_ZN6blocks8fileReadEPS_+0x1b2>
 1b2:	7f dc                	jg     190 <_ZN6blocks8fileReadEPS_+0x190>
 1b4:	48 8d 44 24 30       	lea    0x30(%rsp),%rax
 1b9:	48 8d 78 10          	lea    0x10(%rax),%rdi
 1bd:	e8 00 00 00 00       	callq  1c2 <_ZN6blocks8fileReadEPS_+0x1c2>
 1c2:	48 85 c0             	test   %rax,%rax
 1c5:	0f 84 c8 00 00 00    	je     293 <_ZN6blocks8fileReadEPS_+0x293>
 1cb:	48 8d 44 24 30       	lea    0x30(%rsp),%rax
 1d0:	48 c7 44 24 30 00 00 	movq   $0x0,0x30(%rsp)
 1d7:	00 00 
 1d9:	48 c7 84 24 30 01 00 	movq   $0x0,0x130(%rsp)
 1e0:	00 00 00 00 00 
 1e5:	48 c7 44 24 40 00 00 	movq   $0x0,0x40(%rsp)
 1ec:	00 00 
 1ee:	48 8d 78 10          	lea    0x10(%rax),%rdi
 1f2:	e8 00 00 00 00       	callq  1f7 <_ZN6blocks8fileReadEPS_+0x1f7>
 1f7:	48 8d 44 24 30       	lea    0x30(%rsp),%rax
 1fc:	48 8d 78 78          	lea    0x78(%rax),%rdi
 200:	e8 00 00 00 00       	callq  205 <_ZN6blocks8fileReadEPS_+0x205>
 205:	48 8d 7c 24 78       	lea    0x78(%rsp),%rdi
 20a:	48 c7 44 24 40 00 00 	movq   $0x0,0x40(%rsp)
 211:	00 00 
 213:	e8 00 00 00 00       	callq  218 <_ZN6blocks8fileReadEPS_+0x218>
 218:	49 8b 44 24 e8       	mov    -0x18(%r12),%rax
 21d:	4c 89 64 24 30       	mov    %r12,0x30(%rsp)
 222:	4c 89 6c 04 30       	mov    %r13,0x30(%rsp,%rax,1)
 227:	48 8d 44 24 30       	lea    0x30(%rsp),%rax
 22c:	48 c7 84 24 30 01 00 	movq   $0x0,0x130(%rsp)
 233:	00 00 00 00 00 
 238:	48 8d b8 00 01 00 00 	lea    0x100(%rax),%rdi
 23f:	e8 00 00 00 00       	callq  244 <_ZN6blocks8fileReadEPS_+0x244>
 244:	48 8b 44 24 10       	mov    0x10(%rsp),%rax
 249:	48 8d 78 e8          	lea    -0x18(%rax),%rdi
 24d:	48 81 ff 00 00 00 00 	cmp    $0x0,%rdi
 254:	0f 85 84 00 00 00    	jne    2de <_ZN6blocks8fileReadEPS_+0x2de>
 25a:	48 8b 84 24 38 02 00 	mov    0x238(%rsp),%rax
 261:	00 
 262:	64 48 33 04 25 28 00 	xor    %fs:0x28,%rax
 269:	00 00 
 26b:	0f 85 58 01 00 00    	jne    3c9 <_ZN6blocks8fileReadEPS_+0x3c9>
 271:	48 81 c4 48 02 00 00 	add    $0x248,%rsp
 278:	5b                   	pop    %rbx
 279:	5d                   	pop    %rbp
 27a:	41 5c                	pop    %r12
 27c:	41 5d                	pop    %r13
 27e:	c3                   	retq   
 27f:	48 03 78 e8          	add    -0x18(%rax),%rdi
 283:	8b 77 20             	mov    0x20(%rdi),%esi
 286:	83 ce 04             	or     $0x4,%esi
 289:	e8 00 00 00 00       	callq  28e <_ZN6blocks8fileReadEPS_+0x28e>
 28e:	e9 eb fe ff ff       	jmpq   17e <_ZN6blocks8fileReadEPS_+0x17e>
 293:	48 8b 44 24 30       	mov    0x30(%rsp),%rax
 298:	48 8d 7c 24 30       	lea    0x30(%rsp),%rdi
 29d:	48 03 78 e8          	add    -0x18(%rax),%rdi
 2a1:	8b 77 20             	mov    0x20(%rdi),%esi
 2a4:	83 ce 04             	or     $0x4,%esi
 2a7:	e8 00 00 00 00       	callq  2ac <_ZN6blocks8fileReadEPS_+0x2ac>
 2ac:	e9 1a ff ff ff       	jmpq   1cb <_ZN6blocks8fileReadEPS_+0x1cb>
 2b1:	ba 00 00 00 00       	mov    $0x0,%edx
 2b6:	48 85 d2             	test   %rdx,%rdx
 2b9:	74 5d                	je     318 <_ZN6blocks8fileReadEPS_+0x318>
 2bb:	ba ff ff ff ff       	mov    $0xffffffff,%edx
 2c0:	f0 0f c1 50 f8       	lock xadd %edx,-0x8(%rax)
 2c5:	89 d0                	mov    %edx,%eax
 2c7:	85 c0                	test   %eax,%eax
 2c9:	0f 8f a1 fd ff ff    	jg     70 <_ZN6blocks8fileReadEPS_+0x70>
 2cf:	48 8d 74 24 0f       	lea    0xf(%rsp),%rsi
 2d4:	e8 00 00 00 00       	callq  2d9 <_ZN6blocks8fileReadEPS_+0x2d9>
 2d9:	e9 92 fd ff ff       	jmpq   70 <_ZN6blocks8fileReadEPS_+0x70>
 2de:	ba 00 00 00 00       	mov    $0x0,%edx
 2e3:	48 85 d2             	test   %rdx,%rdx
 2e6:	74 23                	je     30b <_ZN6blocks8fileReadEPS_+0x30b>
 2e8:	ba ff ff ff ff       	mov    $0xffffffff,%edx
 2ed:	f0 0f c1 50 f8       	lock xadd %edx,-0x8(%rax)
 2f2:	89 d0                	mov    %edx,%eax
 2f4:	85 c0                	test   %eax,%eax
 2f6:	0f 8f 5e ff ff ff    	jg     25a <_ZN6blocks8fileReadEPS_+0x25a>
 2fc:	48 8d 74 24 20       	lea    0x20(%rsp),%rsi
 301:	e8 00 00 00 00       	callq  306 <_ZN6blocks8fileReadEPS_+0x306>
 306:	e9 4f ff ff ff       	jmpq   25a <_ZN6blocks8fileReadEPS_+0x25a>
 30b:	8b 50 f8             	mov    -0x8(%rax),%edx
 30e:	8d 4a ff             	lea    -0x1(%rdx),%ecx
 311:	89 48 f8             	mov    %ecx,-0x8(%rax)
 314:	89 d0                	mov    %edx,%eax
 316:	eb dc                	jmp    2f4 <_ZN6blocks8fileReadEPS_+0x2f4>
 318:	8b 50 f8             	mov    -0x8(%rax),%edx
 31b:	8d 4a ff             	lea    -0x1(%rdx),%ecx
 31e:	89 48 f8             	mov    %ecx,-0x8(%rax)
 321:	89 d0                	mov    %edx,%eax
 323:	eb a2                	jmp    2c7 <_ZN6blocks8fileReadEPS_+0x2c7>
 325:	48 89 c3             	mov    %rax,%rbx
 328:	eb 1e                	jmp    348 <_ZN6blocks8fileReadEPS_+0x348>
 32a:	48 89 c3             	mov    %rax,%rbx
 32d:	eb 56                	jmp    385 <_ZN6blocks8fileReadEPS_+0x385>
 32f:	48 8d 7c 24 40       	lea    0x40(%rsp),%rdi
 334:	e8 00 00 00 00       	callq  339 <_ZN6blocks8fileReadEPS_+0x339>
 339:	49 8b 44 24 e8       	mov    -0x18(%r12),%rax
 33e:	4c 89 64 24 30       	mov    %r12,0x30(%rsp)
 343:	4c 89 6c 04 30       	mov    %r13,0x30(%rsp,%rax,1)
 348:	48 8d bc 24 30 01 00 	lea    0x130(%rsp),%rdi
 34f:	00 
 350:	48 c7 84 24 30 01 00 	movq   $0x0,0x130(%rsp)
 357:	00 00 00 00 00 
 35c:	e8 00 00 00 00       	callq  361 <_ZN6blocks8fileReadEPS_+0x361>
 361:	48 8b 44 24 10       	mov    0x10(%rsp),%rax
 366:	48 8d 78 e8          	lea    -0x18(%rax),%rdi
 36a:	48 81 ff 00 00 00 00 	cmp    $0x0,%rdi
 371:	74 0a                	je     37d <_ZN6blocks8fileReadEPS_+0x37d>
 373:	48 8d 74 24 20       	lea    0x20(%rsp),%rsi
 378:	e8 00 00 00 00       	callq  37d <_ZN6blocks8fileReadEPS_+0x37d>
 37d:	48 89 df             	mov    %rbx,%rdi
 380:	e8 00 00 00 00       	callq  385 <_ZN6blocks8fileReadEPS_+0x385>
 385:	48 8b 44 24 10       	mov    0x10(%rsp),%rax
 38a:	48 8d 78 e8          	lea    -0x18(%rax),%rdi
 38e:	48 81 ff 00 00 00 00 	cmp    $0x0,%rdi
 395:	74 0a                	je     3a1 <_ZN6blocks8fileReadEPS_+0x3a1>
 397:	48 8d 74 24 0f       	lea    0xf(%rsp),%rsi
 39c:	e8 00 00 00 00       	callq  3a1 <_ZN6blocks8fileReadEPS_+0x3a1>
 3a1:	48 8b 44 24 20       	mov    0x20(%rsp),%rax
 3a6:	48 8d 78 e8          	lea    -0x18(%rax),%rdi
 3aa:	48 81 ff 00 00 00 00 	cmp    $0x0,%rdi
 3b1:	74 ca                	je     37d <_ZN6blocks8fileReadEPS_+0x37d>
 3b3:	48 8d 74 24 0f       	lea    0xf(%rsp),%rsi
 3b8:	e8 00 00 00 00       	callq  3bd <_ZN6blocks8fileReadEPS_+0x3bd>
 3bd:	eb be                	jmp    37d <_ZN6blocks8fileReadEPS_+0x37d>
 3bf:	48 89 c3             	mov    %rax,%rbx
 3c2:	eb 9d                	jmp    361 <_ZN6blocks8fileReadEPS_+0x361>
 3c4:	48 89 c3             	mov    %rax,%rbx
 3c7:	eb d8                	jmp    3a1 <_ZN6blocks8fileReadEPS_+0x3a1>
 3c9:	e8 00 00 00 00       	callq  3ce <_ZN6blocks8fileReadEPS_+0x3ce>
 3ce:	48 89 c3             	mov    %rax,%rbx
 3d1:	e9 59 ff ff ff       	jmpq   32f <_ZN6blocks8fileReadEPS_+0x32f>
 3d6:	48 89 c3             	mov    %rax,%rbx
 3d9:	eb 5d                	jmp    438 <_ZN6blocks8fileReadEPS_+0x438>
 3db:	48 89 c3             	mov    %rax,%rbx
 3de:	e9 56 ff ff ff       	jmpq   339 <_ZN6blocks8fileReadEPS_+0x339>
 3e3:	48 89 c3             	mov    %rax,%rbx
 3e6:	eb 10                	jmp    3f8 <_ZN6blocks8fileReadEPS_+0x3f8>
 3e8:	48 89 c3             	mov    %rax,%rbx
 3eb:	48 8d bc 24 a8 00 00 	lea    0xa8(%rsp),%rdi
 3f2:	00 
 3f3:	e8 00 00 00 00       	callq  3f8 <_ZN6blocks8fileReadEPS_+0x3f8>
 3f8:	48 8d 7c 24 78       	lea    0x78(%rsp),%rdi
 3fd:	48 c7 44 24 40 00 00 	movq   $0x0,0x40(%rsp)
 404:	00 00 
 406:	e8 00 00 00 00       	callq  40b <_ZN6blocks8fileReadEPS_+0x40b>
 40b:	49 8b 44 24 e8       	mov    -0x18(%r12),%rax
 410:	48 8d bc 24 30 01 00 	lea    0x130(%rsp),%rdi
 417:	00 
 418:	4c 89 64 24 30       	mov    %r12,0x30(%rsp)
 41d:	4c 89 6c 04 30       	mov    %r13,0x30(%rsp,%rax,1)
 422:	48 c7 84 24 30 01 00 	movq   $0x0,0x130(%rsp)
 429:	00 00 00 00 00 
 42e:	e8 00 00 00 00       	callq  433 <_ZN6blocks8fileReadEPS_+0x433>
 433:	e9 29 ff ff ff       	jmpq   361 <_ZN6blocks8fileReadEPS_+0x361>
 438:	48 8d 7c 24 30       	lea    0x30(%rsp),%rdi
 43d:	e8 00 00 00 00       	callq  442 <_ZN6blocks8fileReadEPS_+0x442>
 442:	e9 1a ff ff ff       	jmpq   361 <_ZN6blocks8fileReadEPS_+0x361>

Disassembly of section .text._ZN8powerups15getPowerupCountEv:

0000000000000000 <_ZN8powerups15getPowerupCountEv>:
   0:	41 54                	push   %r12
   2:	55                   	push   %rbp
   3:	be 00 00 00 00       	mov    $0x0,%esi
   8:	53                   	push   %rbx
   9:	ba 00 00 00 00       	mov    $0x0,%edx
   e:	48 81 ec 40 02 00 00 	sub    $0x240,%rsp
  15:	48 8d 7c 24 20       	lea    0x20(%rsp),%rdi
  1a:	64 48 8b 04 25 28 00 	mov    %fs:0x28,%rax
  21:	00 00 
  23:	48 89 84 24 38 02 00 	mov    %rax,0x238(%rsp)
  2a:	00 
  2b:	31 c0                	xor    %eax,%eax
  2d:	e8 00 00 00 00       	callq  32 <_ZN8powerups15getPowerupCountEv+0x32>
  32:	48 8d 74 24 20       	lea    0x20(%rsp),%rsi
  37:	48 8d 7c 24 10       	lea    0x10(%rsp),%rdi
  3c:	e8 00 00 00 00       	callq  41 <_ZN8powerups15getPowerupCountEv+0x41>
  41:	48 8d 7c 24 10       	lea    0x10(%rsp),%rdi
  46:	ba 05 00 00 00       	mov    $0x5,%edx
  4b:	be 00 00 00 00       	mov    $0x0,%esi
  50:	e8 00 00 00 00       	callq  55 <_ZN8powerups15getPowerupCountEv+0x55>
  55:	48 8b 44 24 20       	mov    0x20(%rsp),%rax
  5a:	48 8d 78 e8          	lea    -0x18(%rax),%rdi
  5e:	48 81 ff 00 00 00 00 	cmp    $0x0,%rdi
  65:	0f 85 25 02 00 00    	jne    290 <_ZN8powerups15getPowerupCountEv+0x290>
  6b:	48 8d bc 24 30 01 00 	lea    0x130(%rsp),%rdi
  72:	00 
  73:	4c 8b 64 24 10       	mov    0x10(%rsp),%r12
  78:	e8 00 00 00 00       	callq  7d <_ZN8powerups15getPowerupCountEv+0x7d>
  7d:	48 8b 1d 00 00 00 00 	mov    0x0(%rip),%rbx        # 84 <_ZN8powerups15getPowerupCountEv+0x84>
  84:	c6 84 24 10 02 00 00 	movb   $0x0,0x210(%rsp)
  8b:	00 
  8c:	48 8d 7c 24 30       	lea    0x30(%rsp),%rdi
  91:	48 8b 2d 00 00 00 00 	mov    0x0(%rip),%rbp        # 98 <_ZN8powerups15getPowerupCountEv+0x98>
  98:	48 c7 84 24 30 01 00 	movq   $0x0,0x130(%rsp)
  9f:	00 00 00 00 00 
  a4:	31 f6                	xor    %esi,%esi
  a6:	48 c7 84 24 08 02 00 	movq   $0x0,0x208(%rsp)
  ad:	00 00 00 00 00 
  b2:	c6 84 24 11 02 00 00 	movb   $0x0,0x211(%rsp)
  b9:	00 
  ba:	48 8b 43 e8          	mov    -0x18(%rbx),%rax
  be:	48 c7 84 24 18 02 00 	movq   $0x0,0x218(%rsp)
  c5:	00 00 00 00 00 
  ca:	48 c7 84 24 20 02 00 	movq   $0x0,0x220(%rsp)
  d1:	00 00 00 00 00 
  d6:	48 c7 84 24 28 02 00 	movq   $0x0,0x228(%rsp)
  dd:	00 00 00 00 00 
  e2:	48 c7 84 24 30 02 00 	movq   $0x0,0x230(%rsp)
  e9:	00 00 00 00 00 
  ee:	48 89 5c 24 30       	mov    %rbx,0x30(%rsp)
  f3:	48 89 6c 04 30       	mov    %rbp,0x30(%rsp,%rax,1)
  f8:	48 c7 44 24 38 00 00 	movq   $0x0,0x38(%rsp)
  ff:	00 00 
 101:	48 03 7b e8          	add    -0x18(%rbx),%rdi
 105:	e8 00 00 00 00       	callq  10a <_ZN8powerups15getPowerupCountEv+0x10a>
 10a:	48 8d 44 24 30       	lea    0x30(%rsp),%rax
 10f:	48 c7 44 24 30 00 00 	movq   $0x0,0x30(%rsp)
 116:	00 00 
 118:	48 c7 84 24 30 01 00 	movq   $0x0,0x130(%rsp)
 11f:	00 00 00 00 00 
 124:	48 8d 78 10          	lea    0x10(%rax),%rdi
 128:	e8 00 00 00 00       	callq  12d <_ZN8powerups15getPowerupCountEv+0x12d>
 12d:	48 8d 44 24 30       	lea    0x30(%rsp),%rax
 132:	48 8d 74 24 40       	lea    0x40(%rsp),%rsi
 137:	48 8d b8 00 01 00 00 	lea    0x100(%rax),%rdi
 13e:	e8 00 00 00 00       	callq  143 <_ZN8powerups15getPowerupCountEv+0x143>
 143:	48 8d 44 24 30       	lea    0x30(%rsp),%rax
 148:	ba 08 00 00 00       	mov    $0x8,%edx
 14d:	4c 89 e6             	mov    %r12,%rsi
 150:	48 8d 78 10          	lea    0x10(%rax),%rdi
 154:	e8 00 00 00 00       	callq  159 <_ZN8powerups15getPowerupCountEv+0x159>
 159:	48 85 c0             	test   %rax,%rax
 15c:	48 8d 7c 24 30       	lea    0x30(%rsp),%rdi
 161:	48 8b 44 24 30       	mov    0x30(%rsp),%rax
 166:	0f 84 dc 00 00 00    	je     248 <_ZN8powerups15getPowerupCountEv+0x248>
 16c:	48 03 78 e8          	add    -0x18(%rax),%rdi
 170:	31 f6                	xor    %esi,%esi
 172:	e8 00 00 00 00       	callq  177 <_ZN8powerups15getPowerupCountEv+0x177>
 177:	48 8d 7c 24 30       	lea    0x30(%rsp),%rdi
 17c:	be 00 00 00 00       	mov    $0x0,%esi
 181:	e8 00 00 00 00       	callq  186 <_ZN8powerups15getPowerupCountEv+0x186>
 186:	48 8d 7c 24 30       	lea    0x30(%rsp),%rdi
 18b:	be 00 00 00 00       	mov    $0x0,%esi
 190:	e8 00 00 00 00       	callq  195 <_ZN8powerups15getPowerupCountEv+0x195>
 195:	48 8d 44 24 30       	lea    0x30(%rsp),%rax
 19a:	48 c7 44 24 30 00 00 	movq   $0x0,0x30(%rsp)
 1a1:	00 00 
 1a3:	48 c7 84 24 30 01 00 	movq   $0x0,0x130(%rsp)
 1aa:	00 00 00 00 00 
 1af:	48 c7 44 24 40 00 00 	movq   $0x0,0x40(%rsp)
 1b6:	00 00 
 1b8:	48 8d 78 10          	lea    0x10(%rax),%rdi
 1bc:	e8 00 00 00 00       	callq  1c1 <_ZN8powerups15getPowerupCountEv+0x1c1>
 1c1:	48 8d 44 24 30       	lea    0x30(%rsp),%rax
 1c6:	48 8d 78 78          	lea    0x78(%rax),%rdi
 1ca:	e8 00 00 00 00       	callq  1cf <_ZN8powerups15getPowerupCountEv+0x1cf>
 1cf:	48 8d 7c 24 78       	lea    0x78(%rsp),%rdi
 1d4:	48 c7 44 24 40 00 00 	movq   $0x0,0x40(%rsp)
 1db:	00 00 
 1dd:	e8 00 00 00 00       	callq  1e2 <_ZN8powerups15getPowerupCountEv+0x1e2>
 1e2:	48 8b 43 e8          	mov    -0x18(%rbx),%rax
 1e6:	48 89 5c 24 30       	mov    %rbx,0x30(%rsp)
 1eb:	48 89 6c 04 30       	mov    %rbp,0x30(%rsp,%rax,1)
 1f0:	48 8d 44 24 30       	lea    0x30(%rsp),%rax
 1f5:	48 c7 84 24 30 01 00 	movq   $0x0,0x130(%rsp)
 1fc:	00 00 00 00 00 
 201:	48 8d b8 00 01 00 00 	lea    0x100(%rax),%rdi
 208:	e8 00 00 00 00       	callq  20d <_ZN8powerups15getPowerupCountEv+0x20d>
 20d:	48 8b 44 24 10       	mov    0x10(%rsp),%rax
 212:	48 8d 78 e8          	lea    -0x18(%rax),%rdi
 216:	48 81 ff 00 00 00 00 	cmp    $0x0,%rdi
 21d:	75 41                	jne    260 <_ZN8powerups15getPowerupCountEv+0x260>
 21f:	48 8b 84 24 38 02 00 	mov    0x238(%rsp),%rax
 226:	00 
 227:	64 48 33 04 25 28 00 	xor    %fs:0x28,%rax
 22e:	00 00 
 230:	0f 85 a7 00 00 00    	jne    2dd <_ZN8powerups15getPowerupCountEv+0x2dd>
 236:	48 81 c4 40 02 00 00 	add    $0x240,%rsp
 23d:	5b                   	pop    %rbx
 23e:	5d                   	pop    %rbp
 23f:	41 5c                	pop    %r12
 241:	c3                   	retq   
 242:	66 0f 1f 44 00 00    	nopw   0x0(%rax,%rax,1)
 248:	48 03 78 e8          	add    -0x18(%rax),%rdi
 24c:	8b 77 20             	mov    0x20(%rdi),%esi
 24f:	83 ce 04             	or     $0x4,%esi
 252:	e8 00 00 00 00       	callq  257 <_ZN8powerups15getPowerupCountEv+0x257>
 257:	e9 1b ff ff ff       	jmpq   177 <_ZN8powerups15getPowerupCountEv+0x177>
 25c:	0f 1f 40 00          	nopl   0x0(%rax)
 260:	ba 00 00 00 00       	mov    $0x0,%edx
 265:	48 85 d2             	test   %rdx,%rdx
 268:	74 66                	je     2d0 <_ZN8powerups15getPowerupCountEv+0x2d0>
 26a:	ba ff ff ff ff       	mov    $0xffffffff,%edx
 26f:	f0 0f c1 50 f8       	lock xadd %edx,-0x8(%rax)
 274:	89 d0                	mov    %edx,%eax
 276:	85 c0                	test   %eax,%eax
 278:	7f a5                	jg     21f <_ZN8powerups15getPowerupCountEv+0x21f>
 27a:	48 8d 74 24 20       	lea    0x20(%rsp),%rsi
 27f:	e8 00 00 00 00       	callq  284 <_ZN8powerups15getPowerupCountEv+0x284>
 284:	eb 99                	jmp    21f <_ZN8powerups15getPowerupCountEv+0x21f>
 286:	66 2e 0f 1f 84 00 00 	nopw   %cs:0x0(%rax,%rax,1)
 28d:	00 00 00 
 290:	ba 00 00 00 00       	mov    $0x0,%edx
 295:	48 85 d2             	test   %rdx,%rdx
 298:	74 26                	je     2c0 <_ZN8powerups15getPowerupCountEv+0x2c0>
 29a:	ba ff ff ff ff       	mov    $0xffffffff,%edx
 29f:	f0 0f c1 50 f8       	lock xadd %edx,-0x8(%rax)
 2a4:	89 d0                	mov    %edx,%eax
 2a6:	85 c0                	test   %eax,%eax
 2a8:	0f 8f bd fd ff ff    	jg     6b <_ZN8powerups15getPowerupCountEv+0x6b>
 2ae:	48 8d 74 24 0f       	lea    0xf(%rsp),%rsi
 2b3:	e8 00 00 00 00       	callq  2b8 <_ZN8powerups15getPowerupCountEv+0x2b8>
 2b8:	e9 ae fd ff ff       	jmpq   6b <_ZN8powerups15getPowerupCountEv+0x6b>
 2bd:	0f 1f 00             	nopl   (%rax)
 2c0:	8b 50 f8             	mov    -0x8(%rax),%edx
 2c3:	8d 4a ff             	lea    -0x1(%rdx),%ecx
 2c6:	89 48 f8             	mov    %ecx,-0x8(%rax)
 2c9:	89 d0                	mov    %edx,%eax
 2cb:	eb d9                	jmp    2a6 <_ZN8powerups15getPowerupCountEv+0x2a6>
 2cd:	0f 1f 00             	nopl   (%rax)
 2d0:	8b 50 f8             	mov    -0x8(%rax),%edx
 2d3:	8d 4a ff             	lea    -0x1(%rdx),%ecx
 2d6:	89 48 f8             	mov    %ecx,-0x8(%rax)
 2d9:	89 d0                	mov    %edx,%eax
 2db:	eb 99                	jmp    276 <_ZN8powerups15getPowerupCountEv+0x276>
 2dd:	e8 00 00 00 00       	callq  2e2 <_ZN8powerups15getPowerupCountEv+0x2e2>
 2e2:	48 89 c3             	mov    %rax,%rbx
 2e5:	eb 4c                	jmp    333 <_ZN8powerups15getPowerupCountEv+0x333>
 2e7:	49 89 c4             	mov    %rax,%r12
 2ea:	eb 29                	jmp    315 <_ZN8powerups15getPowerupCountEv+0x315>
 2ec:	48 89 c3             	mov    %rax,%rbx
 2ef:	e9 c8 00 00 00       	jmpq   3bc <_ZN8powerups15getPowerupCountEv+0x3bc>
 2f4:	49 89 c4             	mov    %rax,%r12
 2f7:	eb 77                	jmp    370 <_ZN8powerups15getPowerupCountEv+0x370>
 2f9:	48 89 c3             	mov    %rax,%rbx
 2fc:	eb 4e                	jmp    34c <_ZN8powerups15getPowerupCountEv+0x34c>
 2fe:	eb 22                	jmp    322 <_ZN8powerups15getPowerupCountEv+0x322>
 300:	48 89 c3             	mov    %rax,%rbx
 303:	e9 d0 00 00 00       	jmpq   3d8 <_ZN8powerups15getPowerupCountEv+0x3d8>
 308:	48 89 c3             	mov    %rax,%rbx
 30b:	e9 ed 00 00 00       	jmpq   3fd <_ZN8powerups15getPowerupCountEv+0x3fd>
 310:	49 89 c4             	mov    %rax,%r12
 313:	eb 68                	jmp    37d <_ZN8powerups15getPowerupCountEv+0x37d>
 315:	48 8d 7c 24 40       	lea    0x40(%rsp),%rdi
 31a:	e8 00 00 00 00       	callq  31f <_ZN8powerups15getPowerupCountEv+0x31f>
 31f:	4c 89 e0             	mov    %r12,%rax
 322:	48 8b 53 e8          	mov    -0x18(%rbx),%rdx
 326:	48 89 5c 24 30       	mov    %rbx,0x30(%rsp)
 32b:	48 89 c3             	mov    %rax,%rbx
 32e:	48 89 6c 14 30       	mov    %rbp,0x30(%rsp,%rdx,1)
 333:	48 8d bc 24 30 01 00 	lea    0x130(%rsp),%rdi
 33a:	00 
 33b:	48 c7 84 24 30 01 00 	movq   $0x0,0x130(%rsp)
 342:	00 00 00 00 00 
 347:	e8 00 00 00 00       	callq  34c <_ZN8powerups15getPowerupCountEv+0x34c>
 34c:	48 8b 44 24 10       	mov    0x10(%rsp),%rax
 351:	48 8d 78 e8          	lea    -0x18(%rax),%rdi
 355:	48 81 ff 00 00 00 00 	cmp    $0x0,%rdi
 35c:	74 0a                	je     368 <_ZN8powerups15getPowerupCountEv+0x368>
 35e:	48 8d 74 24 20       	lea    0x20(%rsp),%rsi
 363:	e8 00 00 00 00       	callq  368 <_ZN8powerups15getPowerupCountEv+0x368>
 368:	48 89 df             	mov    %rbx,%rdi
 36b:	e8 00 00 00 00       	callq  370 <_ZN8powerups15getPowerupCountEv+0x370>
 370:	48 8d bc 24 a8 00 00 	lea    0xa8(%rsp),%rdi
 377:	00 
 378:	e8 00 00 00 00       	callq  37d <_ZN8powerups15getPowerupCountEv+0x37d>
 37d:	48 8d 7c 24 78       	lea    0x78(%rsp),%rdi
 382:	48 c7 44 24 40 00 00 	movq   $0x0,0x40(%rsp)
 389:	00 00 
 38b:	e8 00 00 00 00       	callq  390 <_ZN8powerups15getPowerupCountEv+0x390>
 390:	48 8b 43 e8          	mov    -0x18(%rbx),%rax
 394:	48 8d bc 24 30 01 00 	lea    0x130(%rsp),%rdi
 39b:	00 
 39c:	48 89 5c 24 30       	mov    %rbx,0x30(%rsp)
 3a1:	4c 89 e3             	mov    %r12,%rbx
 3a4:	48 89 6c 04 30       	mov    %rbp,0x30(%rsp,%rax,1)
 3a9:	48 c7 84 24 30 01 00 	movq   $0x0,0x130(%rsp)
 3b0:	00 00 00 00 00 
 3b5:	e8 00 00 00 00       	callq  3ba <_ZN8powerups15getPowerupCountEv+0x3ba>
 3ba:	eb 90                	jmp    34c <_ZN8powerups15getPowerupCountEv+0x34c>
 3bc:	48 8b 44 24 10       	mov    0x10(%rsp),%rax
 3c1:	48 8d 78 e8          	lea    -0x18(%rax),%rdi
 3c5:	48 81 ff 00 00 00 00 	cmp    $0x0,%rdi
 3cc:	74 0a                	je     3d8 <_ZN8powerups15getPowerupCountEv+0x3d8>
 3ce:	48 8d 74 24 0f       	lea    0xf(%rsp),%rsi
 3d3:	e8 00 00 00 00       	callq  3d8 <_ZN8powerups15getPowerupCountEv+0x3d8>
 3d8:	48 8b 44 24 20       	mov    0x20(%rsp),%rax
 3dd:	48 8d 78 e8          	lea    -0x18(%rax),%rdi
 3e1:	48 81 ff 00 00 00 00 	cmp    $0x0,%rdi
 3e8:	0f 84 7a ff ff ff    	je     368 <_ZN8powerups15getPowerupCountEv+0x368>
 3ee:	48 8d 74 24 0f       	lea    0xf(%rsp),%rsi
 3f3:	e8 00 00 00 00       	callq  3f8 <_ZN8powerups15getPowerupCountEv+0x3f8>
 3f8:	e9 6b ff ff ff       	jmpq   368 <_ZN8powerups15getPowerupCountEv+0x368>
 3fd:	48 8d 7c 24 30       	lea    0x30(%rsp),%rdi
 402:	e8 00 00 00 00       	callq  407 <_ZN8powerups15getPowerupCountEv+0x407>
 407:	e9 40 ff ff ff       	jmpq   34c <_ZN8powerups15getPowerupCountEv+0x34c>

Disassembly of section .text._ZN8powerups16fileReadPowerupsEPS_:

0000000000000000 <_ZN8powerups16fileReadPowerupsEPS_>:
   0:	41 55                	push   %r13
   2:	41 54                	push   %r12
   4:	be 00 00 00 00       	mov    $0x0,%esi
   9:	55                   	push   %rbp
   a:	53                   	push   %rbx
   b:	48 89 fb             	mov    %rdi,%rbx
   e:	ba 00 00 00 00       	mov    $0x0,%edx
  13:	48 81 ec 48 02 00 00 	sub    $0x248,%rsp
  1a:	48 8d 7c 24 20       	lea    0x20(%rsp),%rdi
  1f:	64 48 8b 04 25 28 00 	mov    %fs:0x28,%rax
  26:	00 00 
  28:	48 89 84 24 38 02 00 	mov    %rax,0x238(%rsp)
  2f:	00 
  30:	31 c0                	xor    %eax,%eax
  32:	e8 00 00 00 00       	callq  37 <_ZN8powerups16fileReadPowerupsEPS_+0x37>
  37:	48 8d 74 24 20       	lea    0x20(%rsp),%rsi
  3c:	48 8d 7c 24 10       	lea    0x10(%rsp),%rdi
  41:	e8 00 00 00 00       	callq  46 <_ZN8powerups16fileReadPowerupsEPS_+0x46>
  46:	48 8d 7c 24 10       	lea    0x10(%rsp),%rdi
  4b:	ba 04 00 00 00       	mov    $0x4,%edx
  50:	be 00 00 00 00       	mov    $0x0,%esi
  55:	e8 00 00 00 00       	callq  5a <_ZN8powerups16fileReadPowerupsEPS_+0x5a>
  5a:	48 8b 44 24 20       	mov    0x20(%rsp),%rax
  5f:	48 8d 78 e8          	lea    -0x18(%rax),%rdi
  63:	48 81 ff 00 00 00 00 	cmp    $0x0,%rdi
  6a:	0f 85 41 02 00 00    	jne    2b1 <_ZN8powerups16fileReadPowerupsEPS_+0x2b1>
  70:	48 8d bc 24 30 01 00 	lea    0x130(%rsp),%rdi
  77:	00 
  78:	48 8b 6c 24 10       	mov    0x10(%rsp),%rbp
  7d:	e8 00 00 00 00       	callq  82 <_ZN8powerups16fileReadPowerupsEPS_+0x82>
  82:	4c 8b 25 00 00 00 00 	mov    0x0(%rip),%r12        # 89 <_ZN8powerups16fileReadPowerupsEPS_+0x89>
  89:	c6 84 24 10 02 00 00 	movb   $0x0,0x210(%rsp)
  90:	00 
  91:	48 8d 7c 24 30       	lea    0x30(%rsp),%rdi
  96:	4c 8b 2d 00 00 00 00 	mov    0x0(%rip),%r13        # 9d <_ZN8powerups16fileReadPowerupsEPS_+0x9d>
  9d:	48 c7 84 24 30 01 00 	movq   $0x0,0x130(%rsp)
  a4:	00 00 00 00 00 
  a9:	31 f6                	xor    %esi,%esi
  ab:	48 c7 84 24 08 02 00 	movq   $0x0,0x208(%rsp)
  b2:	00 00 00 00 00 
  b7:	c6 84 24 11 02 00 00 	movb   $0x0,0x211(%rsp)
  be:	00 
  bf:	49 8b 44 24 e8       	mov    -0x18(%r12),%rax
  c4:	48 c7 84 24 18 02 00 	movq   $0x0,0x218(%rsp)
  cb:	00 00 00 00 00 
  d0:	48 c7 84 24 20 02 00 	movq   $0x0,0x220(%rsp)
  d7:	00 00 00 00 00 
  dc:	48 c7 84 24 28 02 00 	movq   $0x0,0x228(%rsp)
  e3:	00 00 00 00 00 
  e8:	48 c7 84 24 30 02 00 	movq   $0x0,0x230(%rsp)
  ef:	00 00 00 00 00 
  f4:	4c 89 64 24 30       	mov    %r12,0x30(%rsp)
  f9:	4c 89 6c 04 30       	mov    %r13,0x30(%rsp,%rax,1)
  fe:	48 c7 44 24 38 00 00 	movq   $0x0,0x38(%rsp)
 105:	00 00 
 107:	49 03 7c 24 e8       	add    -0x18(%r12),%rdi
 10c:	e8 00 00 00 00       	callq  111 <_ZN8powerups16fileReadPowerupsEPS_+0x111>
 111:	48 8d 44 24 30       	lea    0x30(%rsp),%rax
 116:	48 c7 44 24 30 00 00 	movq   $0x0,0x30(%rsp)
 11d:	00 00 
 11f:	48 c7 84 24 30 01 00 	movq   $0x0,0x130(%rsp)
 126:	00 00 00 00 00 
 12b:	48 8d 78 10          	lea    0x10(%rax),%rdi
 12f:	e8 00 00 00 00       	callq  134 <_ZN8powerups16fileReadPowerupsEPS_+0x134>
 134:	48 8d 44 24 30       	lea    0x30(%rsp),%rax
 139:	48 8d 74 24 40       	lea    0x40(%rsp),%rsi
 13e:	48 8d b8 00 01 00 00 	lea    0x100(%rax),%rdi
 145:	e8 00 00 00 00       	callq  14a <_ZN8powerups16fileReadPowerupsEPS_+0x14a>
 14a:	48 8d 44 24 30       	lea    0x30(%rsp),%rax
 14f:	ba 0c 00 00 00       	mov    $0xc,%edx
 154:	48 89 ee             	mov    %rbp,%rsi
 157:	48 8d 78 10          	lea    0x10(%rax),%rdi
 15b:	e8 00 00 00 00       	callq  160 <_ZN8powerups16fileReadPowerupsEPS_+0x160>
 160:	48 85 c0             	test   %rax,%rax
 163:	48 8d 7c 24 30       	lea    0x30(%rsp),%rdi
 168:	48 8b 44 24 30       	mov    0x30(%rsp),%rax
 16d:	0f 84 0c 01 00 00    	je     27f <_ZN8powerups16fileReadPowerupsEPS_+0x27f>
 173:	48 03 78 e8          	add    -0x18(%rax),%rdi
 177:	31 f6                	xor    %esi,%esi
 179:	e8 00 00 00 00       	callq  17e <_ZN8powerups16fileReadPowerupsEPS_+0x17e>
 17e:	8b 05 00 00 00 00    	mov    0x0(%rip),%eax        # 184 <_ZN8powerups16fileReadPowerupsEPS_+0x184>
 184:	48 83 c3 28          	add    $0x28,%rbx
 188:	31 ed                	xor    %ebp,%ebp
 18a:	85 c0                	test   %eax,%eax
 18c:	7e 26                	jle    1b4 <_ZN8powerups16fileReadPowerupsEPS_+0x1b4>
 18e:	66 90                	xchg   %ax,%ax
 190:	48 8d 7c 24 30       	lea    0x30(%rsp),%rdi
 195:	ba 10 00 00 00       	mov    $0x10,%edx
 19a:	48 89 de             	mov    %rbx,%rsi
 19d:	e8 00 00 00 00       	callq  1a2 <_ZN8powerups16fileReadPowerupsEPS_+0x1a2>
 1a2:	83 c5 01             	add    $0x1,%ebp
 1a5:	48 81 c3 90 01 00 00 	add    $0x190,%rbx
 1ac:	39 2d 00 00 00 00    	cmp    %ebp,0x0(%rip)        # 1b2 <_ZN8powerups16fileReadPowerupsEPS_+0x1b2>
 1b2:	7f dc                	jg     190 <_ZN8powerups16fileReadPowerupsEPS_+0x190>
 1b4:	48 8d 44 24 30       	lea    0x30(%rsp),%rax
 1b9:	48 8d 78 10          	lea    0x10(%rax),%rdi
 1bd:	e8 00 00 00 00       	callq  1c2 <_ZN8powerups16fileReadPowerupsEPS_+0x1c2>
 1c2:	48 85 c0             	test   %rax,%rax
 1c5:	0f 84 c8 00 00 00    	je     293 <_ZN8powerups16fileReadPowerupsEPS_+0x293>
 1cb:	48 8d 44 24 30       	lea    0x30(%rsp),%rax
 1d0:	48 c7 44 24 30 00 00 	movq   $0x0,0x30(%rsp)
 1d7:	00 00 
 1d9:	48 c7 84 24 30 01 00 	movq   $0x0,0x130(%rsp)
 1e0:	00 00 00 00 00 
 1e5:	48 c7 44 24 40 00 00 	movq   $0x0,0x40(%rsp)
 1ec:	00 00 
 1ee:	48 8d 78 10          	lea    0x10(%rax),%rdi
 1f2:	e8 00 00 00 00       	callq  1f7 <_ZN8powerups16fileReadPowerupsEPS_+0x1f7>
 1f7:	48 8d 44 24 30       	lea    0x30(%rsp),%rax
 1fc:	48 8d 78 78          	lea    0x78(%rax),%rdi
 200:	e8 00 00 00 00       	callq  205 <_ZN8powerups16fileReadPowerupsEPS_+0x205>
 205:	48 8d 7c 24 78       	lea    0x78(%rsp),%rdi
 20a:	48 c7 44 24 40 00 00 	movq   $0x0,0x40(%rsp)
 211:	00 00 
 213:	e8 00 00 00 00       	callq  218 <_ZN8powerups16fileReadPowerupsEPS_+0x218>
 218:	49 8b 44 24 e8       	mov    -0x18(%r12),%rax
 21d:	4c 89 64 24 30       	mov    %r12,0x30(%rsp)
 222:	4c 89 6c 04 30       	mov    %r13,0x30(%rsp,%rax,1)
 227:	48 8d 44 24 30       	lea    0x30(%rsp),%rax
 22c:	48 c7 84 24 30 01 00 	movq   $0x0,0x130(%rsp)
 233:	00 00 00 00 00 
 238:	48 8d b8 00 01 00 00 	lea    0x100(%rax),%rdi
 23f:	e8 00 00 00 00       	callq  244 <_ZN8powerups16fileReadPowerupsEPS_+0x244>
 244:	48 8b 44 24 10       	mov    0x10(%rsp),%rax
 249:	48 8d 78 e8          	lea    -0x18(%rax),%rdi
 24d:	48 81 ff 00 00 00 00 	cmp    $0x0,%rdi
 254:	0f 85 84 00 00 00    	jne    2de <_ZN8powerups16fileReadPowerupsEPS_+0x2de>
 25a:	48 8b 84 24 38 02 00 	mov    0x238(%rsp),%rax
 261:	00 
 262:	64 48 33 04 25 28 00 	xor    %fs:0x28,%rax
 269:	00 00 
 26b:	0f 85 58 01 00 00    	jne    3c9 <_ZN8powerups16fileReadPowerupsEPS_+0x3c9>
 271:	48 81 c4 48 02 00 00 	add    $0x248,%rsp
 278:	5b                   	pop    %rbx
 279:	5d                   	pop    %rbp
 27a:	41 5c                	pop    %r12
 27c:	41 5d                	pop    %r13
 27e:	c3                   	retq   
 27f:	48 03 78 e8          	add    -0x18(%rax),%rdi
 283:	8b 77 20             	mov    0x20(%rdi),%esi
 286:	83 ce 04             	or     $0x4,%esi
 289:	e8 00 00 00 00       	callq  28e <_ZN8powerups16fileReadPowerupsEPS_+0x28e>
 28e:	e9 eb fe ff ff       	jmpq   17e <_ZN8powerups16fileReadPowerupsEPS_+0x17e>
 293:	48 8b 44 24 30       	mov    0x30(%rsp),%rax
 298:	48 8d 7c 24 30       	lea    0x30(%rsp),%rdi
 29d:	48 03 78 e8          	add    -0x18(%rax),%rdi
 2a1:	8b 77 20             	mov    0x20(%rdi),%esi
 2a4:	83 ce 04             	or     $0x4,%esi
 2a7:	e8 00 00 00 00       	callq  2ac <_ZN8powerups16fileReadPowerupsEPS_+0x2ac>
 2ac:	e9 1a ff ff ff       	jmpq   1cb <_ZN8powerups16fileReadPowerupsEPS_+0x1cb>
 2b1:	ba 00 00 00 00       	mov    $0x0,%edx
 2b6:	48 85 d2             	test   %rdx,%rdx
 2b9:	74 5d                	je     318 <_ZN8powerups16fileReadPowerupsEPS_+0x318>
 2bb:	ba ff ff ff ff       	mov    $0xffffffff,%edx
 2c0:	f0 0f c1 50 f8       	lock xadd %edx,-0x8(%rax)
 2c5:	89 d0                	mov    %edx,%eax
 2c7:	85 c0                	test   %eax,%eax
 2c9:	0f 8f a1 fd ff ff    	jg     70 <_ZN8powerups16fileReadPowerupsEPS_+0x70>
 2cf:	48 8d 74 24 0f       	lea    0xf(%rsp),%rsi
 2d4:	e8 00 00 00 00       	callq  2d9 <_ZN8powerups16fileReadPowerupsEPS_+0x2d9>
 2d9:	e9 92 fd ff ff       	jmpq   70 <_ZN8powerups16fileReadPowerupsEPS_+0x70>
 2de:	ba 00 00 00 00       	mov    $0x0,%edx
 2e3:	48 85 d2             	test   %rdx,%rdx
 2e6:	74 23                	je     30b <_ZN8powerups16fileReadPowerupsEPS_+0x30b>
 2e8:	ba ff ff ff ff       	mov    $0xffffffff,%edx
 2ed:	f0 0f c1 50 f8       	lock xadd %edx,-0x8(%rax)
 2f2:	89 d0                	mov    %edx,%eax
 2f4:	85 c0                	test   %eax,%eax
 2f6:	0f 8f 5e ff ff ff    	jg     25a <_ZN8powerups16fileReadPowerupsEPS_+0x25a>
 2fc:	48 8d 74 24 20       	lea    0x20(%rsp),%rsi
 301:	e8 00 00 00 00       	callq  306 <_ZN8powerups16fileReadPowerupsEPS_+0x306>
 306:	e9 4f ff ff ff       	jmpq   25a <_ZN8powerups16fileReadPowerupsEPS_+0x25a>
 30b:	8b 50 f8             	mov    -0x8(%rax),%edx
 30e:	8d 4a ff             	lea    -0x1(%rdx),%ecx
 311:	89 48 f8             	mov    %ecx,-0x8(%rax)
 314:	89 d0                	mov    %edx,%eax
 316:	eb dc                	jmp    2f4 <_ZN8powerups16fileReadPowerupsEPS_+0x2f4>
 318:	8b 50 f8             	mov    -0x8(%rax),%edx
 31b:	8d 4a ff             	lea    -0x1(%rdx),%ecx
 31e:	89 48 f8             	mov    %ecx,-0x8(%rax)
 321:	89 d0                	mov    %edx,%eax
 323:	eb a2                	jmp    2c7 <_ZN8powerups16fileReadPowerupsEPS_+0x2c7>
 325:	48 89 c3             	mov    %rax,%rbx
 328:	eb 1e                	jmp    348 <_ZN8powerups16fileReadPowerupsEPS_+0x348>
 32a:	48 89 c3             	mov    %rax,%rbx
 32d:	eb 56                	jmp    385 <_ZN8powerups16fileReadPowerupsEPS_+0x385>
 32f:	48 8d 7c 24 40       	lea    0x40(%rsp),%rdi
 334:	e8 00 00 00 00       	callq  339 <_ZN8powerups16fileReadPowerupsEPS_+0x339>
 339:	49 8b 44 24 e8       	mov    -0x18(%r12),%rax
 33e:	4c 89 64 24 30       	mov    %r12,0x30(%rsp)
 343:	4c 89 6c 04 30       	mov    %r13,0x30(%rsp,%rax,1)
 348:	48 8d bc 24 30 01 00 	lea    0x130(%rsp),%rdi
 34f:	00 
 350:	48 c7 84 24 30 01 00 	movq   $0x0,0x130(%rsp)
 357:	00 00 00 00 00 
 35c:	e8 00 00 00 00       	callq  361 <_ZN8powerups16fileReadPowerupsEPS_+0x361>
 361:	48 8b 44 24 10       	mov    0x10(%rsp),%rax
 366:	48 8d 78 e8          	lea    -0x18(%rax),%rdi
 36a:	48 81 ff 00 00 00 00 	cmp    $0x0,%rdi
 371:	74 0a                	je     37d <_ZN8powerups16fileReadPowerupsEPS_+0x37d>
 373:	48 8d 74 24 20       	lea    0x20(%rsp),%rsi
 378:	e8 00 00 00 00       	callq  37d <_ZN8powerups16fileReadPowerupsEPS_+0x37d>
 37d:	48 89 df             	mov    %rbx,%rdi
 380:	e8 00 00 00 00       	callq  385 <_ZN8powerups16fileReadPowerupsEPS_+0x385>
 385:	48 8b 44 24 10       	mov    0x10(%rsp),%rax
 38a:	48 8d 78 e8          	lea    -0x18(%rax),%rdi
 38e:	48 81 ff 00 00 00 00 	cmp    $0x0,%rdi
 395:	74 0a                	je     3a1 <_ZN8powerups16fileReadPowerupsEPS_+0x3a1>
 397:	48 8d 74 24 0f       	lea    0xf(%rsp),%rsi
 39c:	e8 00 00 00 00       	callq  3a1 <_ZN8powerups16fileReadPowerupsEPS_+0x3a1>
 3a1:	48 8b 44 24 20       	mov    0x20(%rsp),%rax
 3a6:	48 8d 78 e8          	lea    -0x18(%rax),%rdi
 3aa:	48 81 ff 00 00 00 00 	cmp    $0x0,%rdi
 3b1:	74 ca                	je     37d <_ZN8powerups16fileReadPowerupsEPS_+0x37d>
 3b3:	48 8d 74 24 0f       	lea    0xf(%rsp),%rsi
 3b8:	e8 00 00 00 00       	callq  3bd <_ZN8powerups16fileReadPowerupsEPS_+0x3bd>
 3bd:	eb be                	jmp    37d <_ZN8powerups16fileReadPowerupsEPS_+0x37d>
 3bf:	48 89 c3             	mov    %rax,%rbx
 3c2:	eb 9d                	jmp    361 <_ZN8powerups16fileReadPowerupsEPS_+0x361>
 3c4:	48 89 c3             	mov    %rax,%rbx
 3c7:	eb d8                	jmp    3a1 <_ZN8powerups16fileReadPowerupsEPS_+0x3a1>
 3c9:	e8 00 00 00 00       	callq  3ce <_ZN8powerups16fileReadPowerupsEPS_+0x3ce>
 3ce:	48 89 c3             	mov    %rax,%rbx
 3d1:	e9 59 ff ff ff       	jmpq   32f <_ZN8powerups16fileReadPowerupsEPS_+0x32f>
 3d6:	48 89 c3             	mov    %rax,%rbx
 3d9:	eb 5d                	jmp    438 <_ZN8powerups16fileReadPowerupsEPS_+0x438>
 3db:	48 89 c3             	mov    %rax,%rbx
 3de:	e9 56 ff ff ff       	jmpq   339 <_ZN8powerups16fileReadPowerupsEPS_+0x339>
 3e3:	48 89 c3             	mov    %rax,%rbx
 3e6:	eb 10                	jmp    3f8 <_ZN8powerups16fileReadPowerupsEPS_+0x3f8>
 3e8:	48 89 c3             	mov    %rax,%rbx
 3eb:	48 8d bc 24 a8 00 00 	lea    0xa8(%rsp),%rdi
 3f2:	00 
 3f3:	e8 00 00 00 00       	callq  3f8 <_ZN8powerups16fileReadPowerupsEPS_+0x3f8>
 3f8:	48 8d 7c 24 78       	lea    0x78(%rsp),%rdi
 3fd:	48 c7 44 24 40 00 00 	movq   $0x0,0x40(%rsp)
 404:	00 00 
 406:	e8 00 00 00 00       	callq  40b <_ZN8powerups16fileReadPowerupsEPS_+0x40b>
 40b:	49 8b 44 24 e8       	mov    -0x18(%r12),%rax
 410:	48 8d bc 24 30 01 00 	lea    0x130(%rsp),%rdi
 417:	00 
 418:	4c 89 64 24 30       	mov    %r12,0x30(%rsp)
 41d:	4c 89 6c 04 30       	mov    %r13,0x30(%rsp,%rax,1)
 422:	48 c7 84 24 30 01 00 	movq   $0x0,0x130(%rsp)
 429:	00 00 00 00 00 
 42e:	e8 00 00 00 00       	callq  433 <_ZN8powerups16fileReadPowerupsEPS_+0x433>
 433:	e9 29 ff ff ff       	jmpq   361 <_ZN8powerups16fileReadPowerupsEPS_+0x361>
 438:	48 8d 7c 24 30       	lea    0x30(%rsp),%rdi
 43d:	e8 00 00 00 00       	callq  442 <_ZN8powerups16fileReadPowerupsEPS_+0x442>
 442:	e9 1a ff ff ff       	jmpq   361 <_ZN8powerups16fileReadPowerupsEPS_+0x361>

Disassembly of section .text._ZNK2sf4RectIfE10intersectsERKS1_RS1_:

0000000000000000 <_ZNK2sf4RectIfE10intersectsERKS1_RS1_>:
   0:	f3 0f 10 07          	movss  (%rdi),%xmm0
   4:	f3 0f 10 5f 08       	movss  0x8(%rdi),%xmm3
   9:	f3 0f 58 d8          	addss  %xmm0,%xmm3
   d:	f3 0f 10 57 0c       	movss  0xc(%rdi),%xmm2
  12:	f3 0f 10 4e 08       	movss  0x8(%rsi),%xmm1
  17:	f3 0f 10 76 04       	movss  0x4(%rsi),%xmm6
  1c:	44 0f 28 c3          	movaps %xmm3,%xmm8
  20:	f3 0f 5f d8          	maxss  %xmm0,%xmm3
  24:	f3 44 0f 5d c0       	minss  %xmm0,%xmm8
  29:	f3 0f 10 47 04       	movss  0x4(%rdi),%xmm0
  2e:	f3 0f 58 d0          	addss  %xmm0,%xmm2
  32:	0f 28 fa             	movaps %xmm2,%xmm7
  35:	f3 0f 5f d0          	maxss  %xmm0,%xmm2
  39:	f3 0f 5d f8          	minss  %xmm0,%xmm7
  3d:	f3 0f 10 06          	movss  (%rsi),%xmm0
  41:	f3 0f 58 c8          	addss  %xmm0,%xmm1
  45:	0f 28 e9             	movaps %xmm1,%xmm5
  48:	f3 0f 5f c8          	maxss  %xmm0,%xmm1
  4c:	f3 0f 5d e8          	minss  %xmm0,%xmm5
  50:	f3 0f 10 46 0c       	movss  0xc(%rsi),%xmm0
  55:	f3 0f 58 c6          	addss  %xmm6,%xmm0
  59:	f3 0f 5d cb          	minss  %xmm3,%xmm1
  5d:	f3 41 0f 5f e8       	maxss  %xmm8,%xmm5
  62:	0f 28 e0             	movaps %xmm0,%xmm4
  65:	f3 0f 5f c6          	maxss  %xmm6,%xmm0
  69:	f3 0f 5d e6          	minss  %xmm6,%xmm4
  6d:	f3 0f 5d c2          	minss  %xmm2,%xmm0
  71:	f3 0f 5f e7          	maxss  %xmm7,%xmm4
  75:	0f 2e c4             	ucomiss %xmm4,%xmm0
  78:	0f 97 c1             	seta   %cl
  7b:	0f 2e cd             	ucomiss %xmm5,%xmm1
  7e:	0f 97 c0             	seta   %al
  81:	20 c8                	and    %cl,%al
  83:	75 23                	jne    a8 <_ZNK2sf4RectIfE10intersectsERKS1_RS1_+0xa8>
  85:	c7 02 00 00 00 00    	movl   $0x0,(%rdx)
  8b:	c7 42 04 00 00 00 00 	movl   $0x0,0x4(%rdx)
  92:	c7 42 08 00 00 00 00 	movl   $0x0,0x8(%rdx)
  99:	c7 42 0c 00 00 00 00 	movl   $0x0,0xc(%rdx)
  a0:	c3                   	retq   
  a1:	0f 1f 80 00 00 00 00 	nopl   0x0(%rax)
  a8:	f3 0f 5c cd          	subss  %xmm5,%xmm1
  ac:	f3 0f 11 2a          	movss  %xmm5,(%rdx)
  b0:	f3 0f 5c c4          	subss  %xmm4,%xmm0
  b4:	f3 0f 11 62 04       	movss  %xmm4,0x4(%rdx)
  b9:	f3 0f 11 4a 08       	movss  %xmm1,0x8(%rdx)
  be:	f3 0f 11 42 0c       	movss  %xmm0,0xc(%rdx)
  c3:	c3                   	retq   

Disassembly of section .text._ZN3fly14collisionCheckEP6blocks:

0000000000000000 <_ZN3fly14collisionCheckEP6blocks>:
   0:	41 57                	push   %r15
   2:	41 56                	push   %r14
   4:	41 55                	push   %r13
   6:	41 54                	push   %r12
   8:	55                   	push   %rbp
   9:	53                   	push   %rbx
   a:	48 83 ec 68          	sub    $0x68,%rsp
   e:	64 48 8b 04 25 28 00 	mov    %fs:0x28,%rax
  15:	00 00 
  17:	48 89 44 24 58       	mov    %rax,0x58(%rsp)
  1c:	31 c0                	xor    %eax,%eax
  1e:	8b 05 00 00 00 00    	mov    0x0(%rip),%eax        # 24 <_ZN3fly14collisionCheckEP6blocks+0x24>
  24:	85 c0                	test   %eax,%eax
  26:	0f 8e a4 01 00 00    	jle    1d0 <_ZN3fly14collisionCheckEP6blocks+0x1d0>
  2c:	49 89 fe             	mov    %rdi,%r14
  2f:	48 8d 5e 20          	lea    0x20(%rsi),%rbx
  33:	31 ed                	xor    %ebp,%ebp
  35:	e9 8c 00 00 00       	jmpq   c6 <_ZN3fly14collisionCheckEP6blocks+0xc6>
  3a:	66 0f 1f 44 00 00    	nopw   0x0(%rax,%rax,1)
  40:	48 8d 54 24 10       	lea    0x10(%rsp),%rdx
  45:	be 00 00 00 00       	mov    $0x0,%esi
  4a:	4c 89 ef             	mov    %r13,%rdi
  4d:	4d 8d 7e 10          	lea    0x10(%r14),%r15
  51:	c7 44 24 40 00 00 00 	movl   $0x0,0x40(%rsp)
  58:	00 
  59:	c7 44 24 44 00 00 00 	movl   $0x0,0x44(%rsp)
  60:	00 
  61:	c7 44 24 48 00 00 00 	movl   $0x0,0x48(%rsp)
  68:	00 
  69:	c7 44 24 4c 00 00 00 	movl   $0x0,0x4c(%rsp)
  70:	00 
  71:	e8 00 00 00 00       	callq  76 <_ZN3fly14collisionCheckEP6blocks+0x76>
  76:	48 8d 54 24 40       	lea    0x40(%rsp),%rdx
  7b:	4c 89 ee             	mov    %r13,%rsi
  7e:	4c 89 ff             	mov    %r15,%rdi
  81:	e8 00 00 00 00       	callq  86 <_ZN3fly14collisionCheckEP6blocks+0x86>
  86:	48 8b 44 24 30       	mov    0x30(%rsp),%rax
  8b:	48 8d 78 e8          	lea    -0x18(%rax),%rdi
  8f:	48 81 ff 00 00 00 00 	cmp    $0x0,%rdi
  96:	0f 85 04 01 00 00    	jne    1a0 <_ZN3fly14collisionCheckEP6blocks+0x1a0>
  9c:	31 d2                	xor    %edx,%edx
  9e:	4c 89 fe             	mov    %r15,%rsi
  a1:	4c 89 e7             	mov    %r12,%rdi
  a4:	e8 00 00 00 00       	callq  a9 <_ZN3fly14collisionCheckEP6blocks+0xa9>
  a9:	c6 05 00 00 00 00 01 	movb   $0x1,0x0(%rip)        # b0 <_ZN3fly14collisionCheckEP6blocks+0xb0>
  b0:	83 c5 01             	add    $0x1,%ebp
  b3:	48 81 c3 d0 02 00 00 	add    $0x2d0,%rbx
  ba:	39 2d 00 00 00 00    	cmp    %ebp,0x0(%rip)        # c0 <_ZN3fly14collisionCheckEP6blocks+0xc0>
  c0:	0f 8e 0a 01 00 00    	jle    1d0 <_ZN3fly14collisionCheckEP6blocks+0x1d0>
  c6:	48 89 df             	mov    %rbx,%rdi
  c9:	e8 00 00 00 00       	callq  ce <_ZN3fly14collisionCheckEP6blocks+0xce>
  ce:	4d 8d 66 38          	lea    0x38(%r14),%r12
  d2:	66 0f d6 44 24 10    	movq   %xmm0,0x10(%rsp)
  d8:	66 0f d6 4c 24 18    	movq   %xmm1,0x18(%rsp)
  de:	4c 89 e7             	mov    %r12,%rdi
  e1:	e8 00 00 00 00       	callq  e6 <_ZN3fly14collisionCheckEP6blocks+0xe6>
  e6:	48 8d 54 24 40       	lea    0x40(%rsp),%rdx
  eb:	48 8d 74 24 10       	lea    0x10(%rsp),%rsi
  f0:	48 89 e7             	mov    %rsp,%rdi
  f3:	66 0f d6 04 24       	movq   %xmm0,(%rsp)
  f8:	c7 44 24 40 00 00 00 	movl   $0x0,0x40(%rsp)
  ff:	00 
 100:	c7 44 24 44 00 00 00 	movl   $0x0,0x44(%rsp)
 107:	00 
 108:	66 0f d6 4c 24 08    	movq   %xmm1,0x8(%rsp)
 10e:	c7 44 24 48 00 00 00 	movl   $0x0,0x48(%rsp)
 115:	00 
 116:	c7 44 24 4c 00 00 00 	movl   $0x0,0x4c(%rsp)
 11d:	00 
 11e:	e8 00 00 00 00       	callq  123 <_ZN3fly14collisionCheckEP6blocks+0x123>
 123:	84 c0                	test   %al,%al
 125:	4c 8d 6c 24 30       	lea    0x30(%rsp),%r13
 12a:	0f 85 10 ff ff ff    	jne    40 <_ZN3fly14collisionCheckEP6blocks+0x40>
 130:	48 8d bb 58 01 00 00 	lea    0x158(%rbx),%rdi
 137:	e8 00 00 00 00       	callq  13c <_ZN3fly14collisionCheckEP6blocks+0x13c>
 13c:	4c 89 e7             	mov    %r12,%rdi
 13f:	66 0f d6 44 24 30    	movq   %xmm0,0x30(%rsp)
 145:	66 0f d6 4c 24 38    	movq   %xmm1,0x38(%rsp)
 14b:	e8 00 00 00 00       	callq  150 <_ZN3fly14collisionCheckEP6blocks+0x150>
 150:	4c 8d 6c 24 30       	lea    0x30(%rsp),%r13
 155:	48 8d 54 24 40       	lea    0x40(%rsp),%rdx
 15a:	48 8d 7c 24 20       	lea    0x20(%rsp),%rdi
 15f:	66 0f d6 44 24 20    	movq   %xmm0,0x20(%rsp)
 165:	c7 44 24 40 00 00 00 	movl   $0x0,0x40(%rsp)
 16c:	00 
 16d:	c7 44 24 44 00 00 00 	movl   $0x0,0x44(%rsp)
 174:	00 
 175:	4c 89 ee             	mov    %r13,%rsi
 178:	66 0f d6 4c 24 28    	movq   %xmm1,0x28(%rsp)
 17e:	c7 44 24 48 00 00 00 	movl   $0x0,0x48(%rsp)
 185:	00 
 186:	c7 44 24 4c 00 00 00 	movl   $0x0,0x4c(%rsp)
 18d:	00 
 18e:	e8 00 00 00 00       	callq  193 <_ZN3fly14collisionCheckEP6blocks+0x193>
 193:	84 c0                	test   %al,%al
 195:	0f 84 15 ff ff ff    	je     b0 <_ZN3fly14collisionCheckEP6blocks+0xb0>
 19b:	e9 a0 fe ff ff       	jmpq   40 <_ZN3fly14collisionCheckEP6blocks+0x40>
 1a0:	ba 00 00 00 00       	mov    $0x0,%edx
 1a5:	48 85 d2             	test   %rdx,%rdx
 1a8:	74 45                	je     1ef <_ZN3fly14collisionCheckEP6blocks+0x1ef>
 1aa:	ba ff ff ff ff       	mov    $0xffffffff,%edx
 1af:	f0 0f c1 50 f8       	lock xadd %edx,-0x8(%rax)
 1b4:	89 d0                	mov    %edx,%eax
 1b6:	85 c0                	test   %eax,%eax
 1b8:	0f 8f de fe ff ff    	jg     9c <_ZN3fly14collisionCheckEP6blocks+0x9c>
 1be:	48 8d 74 24 20       	lea    0x20(%rsp),%rsi
 1c3:	e8 00 00 00 00       	callq  1c8 <_ZN3fly14collisionCheckEP6blocks+0x1c8>
 1c8:	e9 cf fe ff ff       	jmpq   9c <_ZN3fly14collisionCheckEP6blocks+0x9c>
 1cd:	0f 1f 00             	nopl   (%rax)
 1d0:	48 8b 44 24 58       	mov    0x58(%rsp),%rax
 1d5:	64 48 33 04 25 28 00 	xor    %fs:0x28,%rax
 1dc:	00 00 
 1de:	75 59                	jne    239 <_ZN3fly14collisionCheckEP6blocks+0x239>
 1e0:	48 83 c4 68          	add    $0x68,%rsp
 1e4:	5b                   	pop    %rbx
 1e5:	5d                   	pop    %rbp
 1e6:	41 5c                	pop    %r12
 1e8:	41 5d                	pop    %r13
 1ea:	41 5e                	pop    %r14
 1ec:	41 5f                	pop    %r15
 1ee:	c3                   	retq   
 1ef:	8b 50 f8             	mov    -0x8(%rax),%edx
 1f2:	8d 4a ff             	lea    -0x1(%rdx),%ecx
 1f5:	89 48 f8             	mov    %ecx,-0x8(%rax)
 1f8:	89 d0                	mov    %edx,%eax
 1fa:	eb ba                	jmp    1b6 <_ZN3fly14collisionCheckEP6blocks+0x1b6>
 1fc:	eb 02                	jmp    200 <_ZN3fly14collisionCheckEP6blocks+0x200>
 1fe:	eb 08                	jmp    208 <_ZN3fly14collisionCheckEP6blocks+0x208>
 200:	48 89 c7             	mov    %rax,%rdi
 203:	e8 00 00 00 00       	callq  208 <_ZN3fly14collisionCheckEP6blocks+0x208>
 208:	eb f6                	jmp    200 <_ZN3fly14collisionCheckEP6blocks+0x200>
 20a:	48 89 c3             	mov    %rax,%rbx
 20d:	eb 02                	jmp    211 <_ZN3fly14collisionCheckEP6blocks+0x211>
 20f:	eb 24                	jmp    235 <_ZN3fly14collisionCheckEP6blocks+0x235>
 211:	48 8b 44 24 30       	mov    0x30(%rsp),%rax
 216:	48 8d 78 e8          	lea    -0x18(%rax),%rdi
 21a:	48 81 ff 00 00 00 00 	cmp    $0x0,%rdi
 221:	74 0a                	je     22d <_ZN3fly14collisionCheckEP6blocks+0x22d>
 223:	48 8d 74 24 20       	lea    0x20(%rsp),%rsi
 228:	e8 00 00 00 00       	callq  22d <_ZN3fly14collisionCheckEP6blocks+0x22d>
 22d:	48 89 df             	mov    %rbx,%rdi
 230:	e8 00 00 00 00       	callq  235 <_ZN3fly14collisionCheckEP6blocks+0x235>
 235:	eb c9                	jmp    200 <_ZN3fly14collisionCheckEP6blocks+0x200>
 237:	eb 05                	jmp    23e <_ZN3fly14collisionCheckEP6blocks+0x23e>
 239:	e8 00 00 00 00       	callq  23e <_ZN3fly14collisionCheckEP6blocks+0x23e>
 23e:	eb c0                	jmp    200 <_ZN3fly14collisionCheckEP6blocks+0x200>

Disassembly of section .text._ZNSt15basic_stringbufIcSt11char_traitsIcESaIcEED2Ev:

0000000000000000 <_ZNSt15basic_stringbufIcSt11char_traitsIcESaIcEED1Ev>:
   0:	53                   	push   %rbx
   1:	48 89 fb             	mov    %rdi,%rbx
   4:	48 83 ec 10          	sub    $0x10,%rsp
   8:	48 c7 07 00 00 00 00 	movq   $0x0,(%rdi)
   f:	64 48 8b 04 25 28 00 	mov    %fs:0x28,%rax
  16:	00 00 
  18:	48 89 44 24 08       	mov    %rax,0x8(%rsp)
  1d:	31 c0                	xor    %eax,%eax
  1f:	48 8b 47 48          	mov    0x48(%rdi),%rax
  23:	48 8d 78 e8          	lea    -0x18(%rax),%rdi
  27:	48 81 ff 00 00 00 00 	cmp    $0x0,%rdi
  2e:	75 30                	jne    60 <_ZNSt15basic_stringbufIcSt11char_traitsIcESaIcEED1Ev+0x60>
  30:	48 8d 7b 38          	lea    0x38(%rbx),%rdi
  34:	48 c7 03 00 00 00 00 	movq   $0x0,(%rbx)
  3b:	e8 00 00 00 00       	callq  40 <_ZNSt15basic_stringbufIcSt11char_traitsIcESaIcEED1Ev+0x40>
  40:	48 8b 44 24 08       	mov    0x8(%rsp),%rax
  45:	64 48 33 04 25 28 00 	xor    %fs:0x28,%rax
  4c:	00 00 
  4e:	75 4d                	jne    9d <_ZNSt15basic_stringbufIcSt11char_traitsIcESaIcEED1Ev+0x9d>
  50:	48 83 c4 10          	add    $0x10,%rsp
  54:	5b                   	pop    %rbx
  55:	c3                   	retq   
  56:	66 2e 0f 1f 84 00 00 	nopw   %cs:0x0(%rax,%rax,1)
  5d:	00 00 00 
  60:	ba 00 00 00 00       	mov    $0x0,%edx
  65:	48 85 d2             	test   %rdx,%rdx
  68:	74 26                	je     90 <_ZNSt15basic_stringbufIcSt11char_traitsIcESaIcEED1Ev+0x90>
  6a:	ba ff ff ff ff       	mov    $0xffffffff,%edx
  6f:	f0 0f c1 50 f8       	lock xadd %edx,-0x8(%rax)
  74:	89 d0                	mov    %edx,%eax
  76:	85 c0                	test   %eax,%eax
  78:	7f b6                	jg     30 <_ZNSt15basic_stringbufIcSt11char_traitsIcESaIcEED1Ev+0x30>
  7a:	48 8d 74 24 07       	lea    0x7(%rsp),%rsi
  7f:	e8 00 00 00 00       	callq  84 <_ZNSt15basic_stringbufIcSt11char_traitsIcESaIcEED1Ev+0x84>
  84:	eb aa                	jmp    30 <_ZNSt15basic_stringbufIcSt11char_traitsIcESaIcEED1Ev+0x30>
  86:	66 2e 0f 1f 84 00 00 	nopw   %cs:0x0(%rax,%rax,1)
  8d:	00 00 00 
  90:	8b 50 f8             	mov    -0x8(%rax),%edx
  93:	8d 4a ff             	lea    -0x1(%rdx),%ecx
  96:	89 48 f8             	mov    %ecx,-0x8(%rax)
  99:	89 d0                	mov    %edx,%eax
  9b:	eb d9                	jmp    76 <_ZNSt15basic_stringbufIcSt11char_traitsIcESaIcEED1Ev+0x76>
  9d:	e8 00 00 00 00       	callq  a2 <_ZThn8_N2sf4TextD0Ev+0x12>

Disassembly of section .text._ZNSt15basic_stringbufIcSt11char_traitsIcESaIcEED0Ev:

0000000000000000 <_ZNSt15basic_stringbufIcSt11char_traitsIcESaIcEED0Ev>:
   0:	53                   	push   %rbx
   1:	48 89 fb             	mov    %rdi,%rbx
   4:	48 83 ec 10          	sub    $0x10,%rsp
   8:	48 c7 07 00 00 00 00 	movq   $0x0,(%rdi)
   f:	64 48 8b 04 25 28 00 	mov    %fs:0x28,%rax
  16:	00 00 
  18:	48 89 44 24 08       	mov    %rax,0x8(%rsp)
  1d:	31 c0                	xor    %eax,%eax
  1f:	48 8b 47 48          	mov    0x48(%rdi),%rax
  23:	48 8d 78 e8          	lea    -0x18(%rax),%rdi
  27:	48 81 ff 00 00 00 00 	cmp    $0x0,%rdi
  2e:	75 30                	jne    60 <_ZNSt15basic_stringbufIcSt11char_traitsIcESaIcEED0Ev+0x60>
  30:	48 8d 7b 38          	lea    0x38(%rbx),%rdi
  34:	48 c7 03 00 00 00 00 	movq   $0x0,(%rbx)
  3b:	e8 00 00 00 00       	callq  40 <_ZNSt15basic_stringbufIcSt11char_traitsIcESaIcEED0Ev+0x40>
  40:	48 89 df             	mov    %rbx,%rdi
  43:	e8 00 00 00 00       	callq  48 <_ZNSt15basic_stringbufIcSt11char_traitsIcESaIcEED0Ev+0x48>
  48:	48 8b 44 24 08       	mov    0x8(%rsp),%rax
  4d:	64 48 33 04 25 28 00 	xor    %fs:0x28,%rax
  54:	00 00 
  56:	75 45                	jne    9d <_ZNSt15basic_stringbufIcSt11char_traitsIcESaIcEED0Ev+0x9d>
  58:	48 83 c4 10          	add    $0x10,%rsp
  5c:	5b                   	pop    %rbx
  5d:	c3                   	retq   
  5e:	66 90                	xchg   %ax,%ax
  60:	ba 00 00 00 00       	mov    $0x0,%edx
  65:	48 85 d2             	test   %rdx,%rdx
  68:	74 26                	je     90 <_ZNSt15basic_stringbufIcSt11char_traitsIcESaIcEED0Ev+0x90>
  6a:	ba ff ff ff ff       	mov    $0xffffffff,%edx
  6f:	f0 0f c1 50 f8       	lock xadd %edx,-0x8(%rax)
  74:	89 d0                	mov    %edx,%eax
  76:	85 c0                	test   %eax,%eax
  78:	7f b6                	jg     30 <_ZNSt15basic_stringbufIcSt11char_traitsIcESaIcEED0Ev+0x30>
  7a:	48 8d 74 24 07       	lea    0x7(%rsp),%rsi
  7f:	e8 00 00 00 00       	callq  84 <_ZNSt15basic_stringbufIcSt11char_traitsIcESaIcEED0Ev+0x84>
  84:	eb aa                	jmp    30 <_ZNSt15basic_stringbufIcSt11char_traitsIcESaIcEED0Ev+0x30>
  86:	66 2e 0f 1f 84 00 00 	nopw   %cs:0x0(%rax,%rax,1)
  8d:	00 00 00 
  90:	8b 50 f8             	mov    -0x8(%rax),%edx
  93:	8d 4a ff             	lea    -0x1(%rdx),%ecx
  96:	89 48 f8             	mov    %ecx,-0x8(%rax)
  99:	89 d0                	mov    %edx,%eax
  9b:	eb d9                	jmp    76 <_ZNSt15basic_stringbufIcSt11char_traitsIcESaIcEED0Ev+0x76>
  9d:	e8 00 00 00 00       	callq  a2 <_ZThn8_N2sf4TextD0Ev+0x12>

Disassembly of section .text._ZNSs12_S_constructIPcEES0_T_S1_RKSaIcESt20forward_iterator_tag:

0000000000000000 <_ZNSs12_S_constructIPcEES0_T_S1_RKSaIcESt20forward_iterator_tag>:
   0:	48 39 f7             	cmp    %rsi,%rdi
   3:	74 73                	je     78 <_ZNSs12_S_constructIPcEES0_T_S1_RKSaIcESt20forward_iterator_tag+0x78>
   5:	48 85 ff             	test   %rdi,%rdi
   8:	41 54                	push   %r12
   a:	55                   	push   %rbp
   b:	48 89 fd             	mov    %rdi,%rbp
   e:	53                   	push   %rbx
   f:	48 89 f3             	mov    %rsi,%rbx
  12:	75 14                	jne    28 <_ZNSs12_S_constructIPcEES0_T_S1_RKSaIcESt20forward_iterator_tag+0x28>
  14:	48 85 f6             	test   %rsi,%rsi
  17:	74 0f                	je     28 <_ZNSs12_S_constructIPcEES0_T_S1_RKSaIcESt20forward_iterator_tag+0x28>
  19:	bf 00 00 00 00       	mov    $0x0,%edi
  1e:	e8 00 00 00 00       	callq  23 <_ZNSs12_S_constructIPcEES0_T_S1_RKSaIcESt20forward_iterator_tag+0x23>
  23:	0f 1f 44 00 00       	nopl   0x0(%rax,%rax,1)
  28:	48 29 eb             	sub    %rbp,%rbx
  2b:	31 f6                	xor    %esi,%esi
  2d:	48 89 df             	mov    %rbx,%rdi
  30:	e8 00 00 00 00       	callq  35 <_ZNSs12_S_constructIPcEES0_T_S1_RKSaIcESt20forward_iterator_tag+0x35>
  35:	48 83 fb 01          	cmp    $0x1,%rbx
  39:	49 89 c4             	mov    %rax,%r12
  3c:	48 8d 48 18          	lea    0x18(%rax),%rcx
  40:	74 26                	je     68 <_ZNSs12_S_constructIPcEES0_T_S1_RKSaIcESt20forward_iterator_tag+0x68>
  42:	48 89 cf             	mov    %rcx,%rdi
  45:	48 89 da             	mov    %rbx,%rdx
  48:	48 89 ee             	mov    %rbp,%rsi
  4b:	e8 00 00 00 00       	callq  50 <_ZNSs12_S_constructIPcEES0_T_S1_RKSaIcESt20forward_iterator_tag+0x50>
  50:	48 89 c1             	mov    %rax,%rcx
  53:	49 81 fc 00 00 00 00 	cmp    $0x0,%r12
  5a:	75 2c                	jne    88 <_ZNSs12_S_constructIPcEES0_T_S1_RKSaIcESt20forward_iterator_tag+0x88>
  5c:	5b                   	pop    %rbx
  5d:	48 89 c8             	mov    %rcx,%rax
  60:	5d                   	pop    %rbp
  61:	41 5c                	pop    %r12
  63:	c3                   	retq   
  64:	0f 1f 40 00          	nopl   0x0(%rax)
  68:	0f b6 45 00          	movzbl 0x0(%rbp),%eax
  6c:	41 88 44 24 18       	mov    %al,0x18(%r12)
  71:	eb e0                	jmp    53 <_ZNSs12_S_constructIPcEES0_T_S1_RKSaIcESt20forward_iterator_tag+0x53>
  73:	0f 1f 44 00 00       	nopl   0x0(%rax,%rax,1)
  78:	b9 00 00 00 00       	mov    $0x0,%ecx
  7d:	48 89 c8             	mov    %rcx,%rax
  80:	c3                   	retq   
  81:	0f 1f 80 00 00 00 00 	nopl   0x0(%rax)
  88:	41 c7 44 24 10 00 00 	movl   $0x0,0x10(%r12)
  8f:	00 00 
  91:	49 89 1c 24          	mov    %rbx,(%r12)
  95:	41 c6 44 1c 18 00    	movb   $0x0,0x18(%r12,%rbx,1)
  9b:	eb bf                	jmp    5c <_ZNSs12_S_constructIPcEES0_T_S1_RKSaIcESt20forward_iterator_tag+0x5c>

Disassembly of section .text._Z9to_stringIiESsT_:

0000000000000000 <_Z9to_stringIiESsT_>:
   0:	55                   	push   %rbp
   1:	48 89 e5             	mov    %rsp,%rbp
   4:	41 56                	push   %r14
   6:	41 55                	push   %r13
   8:	41 54                	push   %r12
   a:	53                   	push   %rbx
   b:	49 89 fe             	mov    %rdi,%r14
   e:	41 89 f5             	mov    %esi,%r13d
  11:	48 81 ec 90 01 00 00 	sub    $0x190,%rsp
  18:	64 48 8b 04 25 28 00 	mov    %fs:0x28,%rax
  1f:	00 00 
  21:	48 89 45 d8          	mov    %rax,-0x28(%rbp)
  25:	31 c0                	xor    %eax,%eax
  27:	48 8d 85 70 fe ff ff 	lea    -0x190(%rbp),%rax
  2e:	48 8d 78 58          	lea    0x58(%rax),%rdi
  32:	e8 00 00 00 00       	callq  37 <_Z9to_stringIiESsT_+0x37>
  37:	48 8b 1d 00 00 00 00 	mov    0x0(%rip),%rbx        # 3e <_Z9to_stringIiESsT_+0x3e>
  3e:	c6 45 a8 00          	movb   $0x0,-0x58(%rbp)
  42:	48 8d bd 70 fe ff ff 	lea    -0x190(%rbp),%rdi
  49:	4c 8b 25 00 00 00 00 	mov    0x0(%rip),%r12        # 50 <_Z9to_stringIiESsT_+0x50>
  50:	48 c7 85 c8 fe ff ff 	movq   $0x0,-0x138(%rbp)
  57:	00 00 00 00 
  5b:	31 f6                	xor    %esi,%esi
  5d:	48 c7 45 a0 00 00 00 	movq   $0x0,-0x60(%rbp)
  64:	00 
  65:	c6 45 a9 00          	movb   $0x0,-0x57(%rbp)
  69:	48 03 7b e8          	add    -0x18(%rbx),%rdi
  6d:	48 c7 45 b0 00 00 00 	movq   $0x0,-0x50(%rbp)
  74:	00 
  75:	48 c7 45 b8 00 00 00 	movq   $0x0,-0x48(%rbp)
  7c:	00 
  7d:	48 c7 45 c0 00 00 00 	movq   $0x0,-0x40(%rbp)
  84:	00 
  85:	48 c7 45 c8 00 00 00 	movq   $0x0,-0x38(%rbp)
  8c:	00 
  8d:	48 89 9d 70 fe ff ff 	mov    %rbx,-0x190(%rbp)
  94:	4c 89 27             	mov    %r12,(%rdi)
  97:	e8 00 00 00 00       	callq  9c <_Z9to_stringIiESsT_+0x9c>
  9c:	48 8d 85 70 fe ff ff 	lea    -0x190(%rbp),%rax
  a3:	48 c7 85 70 fe ff ff 	movq   $0x0,-0x190(%rbp)
  aa:	00 00 00 00 
  ae:	48 c7 85 c8 fe ff ff 	movq   $0x0,-0x138(%rbp)
  b5:	00 00 00 00 
  b9:	48 c7 85 78 fe ff ff 	movq   $0x0,-0x188(%rbp)
  c0:	00 00 00 00 
  c4:	48 c7 85 80 fe ff ff 	movq   $0x0,-0x180(%rbp)
  cb:	00 00 00 00 
  cf:	48 8d 78 40          	lea    0x40(%rax),%rdi
  d3:	48 c7 85 88 fe ff ff 	movq   $0x0,-0x178(%rbp)
  da:	00 00 00 00 
  de:	48 c7 85 90 fe ff ff 	movq   $0x0,-0x170(%rbp)
  e5:	00 00 00 00 
  e9:	48 c7 85 98 fe ff ff 	movq   $0x0,-0x168(%rbp)
  f0:	00 00 00 00 
  f4:	48 c7 85 a0 fe ff ff 	movq   $0x0,-0x160(%rbp)
  fb:	00 00 00 00 
  ff:	48 c7 85 a8 fe ff ff 	movq   $0x0,-0x158(%rbp)
 106:	00 00 00 00 
 10a:	e8 00 00 00 00       	callq  10f <_Z9to_stringIiESsT_+0x10f>
 10f:	48 8d 85 70 fe ff ff 	lea    -0x190(%rbp),%rax
 116:	48 c7 85 78 fe ff ff 	movq   $0x0,-0x188(%rbp)
 11d:	00 00 00 00 
 121:	c7 85 b8 fe ff ff 10 	movl   $0x10,-0x148(%rbp)
 128:	00 00 00 
 12b:	48 c7 85 c0 fe ff ff 	movq   $0x0,-0x140(%rbp)
 132:	00 00 00 00 
 136:	48 8d 70 08          	lea    0x8(%rax),%rsi
 13a:	48 8d 78 58          	lea    0x58(%rax),%rdi
 13e:	e8 00 00 00 00       	callq  143 <_Z9to_stringIiESsT_+0x143>
 143:	48 8d bd 70 fe ff ff 	lea    -0x190(%rbp),%rdi
 14a:	44 89 ee             	mov    %r13d,%esi
 14d:	e8 00 00 00 00       	callq  152 <_Z9to_stringIiESsT_+0x152>
 152:	48 8b 85 a0 fe ff ff 	mov    -0x160(%rbp),%rax
 159:	49 c7 06 00 00 00 00 	movq   $0x0,(%r14)
 160:	48 85 c0             	test   %rax,%rax
 163:	0f 84 a7 01 00 00    	je     310 <_Z9to_stringIiESsT_+0x310>
 169:	48 8b b5 90 fe ff ff 	mov    -0x170(%rbp),%rsi
 170:	48 39 f0             	cmp    %rsi,%rax
 173:	0f 87 f7 00 00 00    	ja     270 <_Z9to_stringIiESsT_+0x270>
 179:	48 83 ec 08          	sub    $0x8,%rsp
 17d:	48 8b bd 98 fe ff ff 	mov    -0x168(%rbp),%rdi
 184:	48 8d 95 5f fe ff ff 	lea    -0x1a1(%rbp),%rdx
 18b:	6a 00                	pushq  $0x0
 18d:	e8 00 00 00 00       	callq  192 <_Z9to_stringIiESsT_+0x192>
 192:	5a                   	pop    %rdx
 193:	59                   	pop    %rcx
 194:	48 8d b5 60 fe ff ff 	lea    -0x1a0(%rbp),%rsi
 19b:	4c 89 f7             	mov    %r14,%rdi
 19e:	48 89 85 60 fe ff ff 	mov    %rax,-0x1a0(%rbp)
 1a5:	e8 00 00 00 00       	callq  1aa <_Z9to_stringIiESsT_+0x1aa>
 1aa:	48 8b 85 60 fe ff ff 	mov    -0x1a0(%rbp),%rax
 1b1:	48 8d 78 e8          	lea    -0x18(%rax),%rdi
 1b5:	48 81 ff 00 00 00 00 	cmp    $0x0,%rdi
 1bc:	0f 85 1e 01 00 00    	jne    2e0 <_Z9to_stringIiESsT_+0x2e0>
 1c2:	48 8b 85 c0 fe ff ff 	mov    -0x140(%rbp),%rax
 1c9:	48 c7 85 70 fe ff ff 	movq   $0x0,-0x190(%rbp)
 1d0:	00 00 00 00 
 1d4:	48 c7 85 c8 fe ff ff 	movq   $0x0,-0x138(%rbp)
 1db:	00 00 00 00 
 1df:	48 c7 85 78 fe ff ff 	movq   $0x0,-0x188(%rbp)
 1e6:	00 00 00 00 
 1ea:	48 8d 78 e8          	lea    -0x18(%rax),%rdi
 1ee:	48 81 ff 00 00 00 00 	cmp    $0x0,%rdi
 1f5:	0f 85 b5 00 00 00    	jne    2b0 <_Z9to_stringIiESsT_+0x2b0>
 1fb:	48 8d 85 70 fe ff ff 	lea    -0x190(%rbp),%rax
 202:	48 c7 85 78 fe ff ff 	movq   $0x0,-0x188(%rbp)
 209:	00 00 00 00 
 20d:	48 8d 78 40          	lea    0x40(%rax),%rdi
 211:	e8 00 00 00 00       	callq  216 <_Z9to_stringIiESsT_+0x216>
 216:	48 8b 43 e8          	mov    -0x18(%rbx),%rax
 21a:	48 89 9d 70 fe ff ff 	mov    %rbx,-0x190(%rbp)
 221:	4c 89 a4 05 70 fe ff 	mov    %r12,-0x190(%rbp,%rax,1)
 228:	ff 
 229:	48 8d 85 70 fe ff ff 	lea    -0x190(%rbp),%rax
 230:	48 c7 85 c8 fe ff ff 	movq   $0x0,-0x138(%rbp)
 237:	00 00 00 00 
 23b:	48 8d 78 58          	lea    0x58(%rax),%rdi
 23f:	e8 00 00 00 00       	callq  244 <_Z9to_stringIiESsT_+0x244>
 244:	48 8b 4d d8          	mov    -0x28(%rbp),%rcx
 248:	64 48 33 0c 25 28 00 	xor    %fs:0x28,%rcx
 24f:	00 00 
 251:	4c 89 f0             	mov    %r14,%rax
 254:	0f 85 f3 00 00 00    	jne    34d <_Z9to_stringIiESsT_+0x34d>
 25a:	48 8d 65 e0          	lea    -0x20(%rbp),%rsp
 25e:	5b                   	pop    %rbx
 25f:	41 5c                	pop    %r12
 261:	41 5d                	pop    %r13
 263:	41 5e                	pop    %r14
 265:	5d                   	pop    %rbp
 266:	c3                   	retq   
 267:	66 0f 1f 84 00 00 00 	nopw   0x0(%rax,%rax,1)
 26e:	00 00 
 270:	48 83 ec 08          	sub    $0x8,%rsp
 274:	48 8b bd 98 fe ff ff 	mov    -0x168(%rbp),%rdi
 27b:	48 8d 95 5f fe ff ff 	lea    -0x1a1(%rbp),%rdx
 282:	6a 00                	pushq  $0x0
 284:	48 89 c6             	mov    %rax,%rsi
 287:	e8 00 00 00 00       	callq  28c <_Z9to_stringIiESsT_+0x28c>
 28c:	5e                   	pop    %rsi
 28d:	5f                   	pop    %rdi
 28e:	48 8d b5 60 fe ff ff 	lea    -0x1a0(%rbp),%rsi
 295:	4c 89 f7             	mov    %r14,%rdi
 298:	48 89 85 60 fe ff ff 	mov    %rax,-0x1a0(%rbp)
 29f:	e8 00 00 00 00       	callq  2a4 <_Z9to_stringIiESsT_+0x2a4>
 2a4:	e9 01 ff ff ff       	jmpq   1aa <_Z9to_stringIiESsT_+0x1aa>
 2a9:	0f 1f 80 00 00 00 00 	nopl   0x0(%rax)
 2b0:	ba 00 00 00 00       	mov    $0x0,%edx
 2b5:	48 85 d2             	test   %rdx,%rdx
 2b8:	74 76                	je     330 <_Z9to_stringIiESsT_+0x330>
 2ba:	ba ff ff ff ff       	mov    $0xffffffff,%edx
 2bf:	f0 0f c1 50 f8       	lock xadd %edx,-0x8(%rax)
 2c4:	89 d0                	mov    %edx,%eax
 2c6:	85 c0                	test   %eax,%eax
 2c8:	0f 8f 2d ff ff ff    	jg     1fb <_Z9to_stringIiESsT_+0x1fb>
 2ce:	48 8d b5 60 fe ff ff 	lea    -0x1a0(%rbp),%rsi
 2d5:	e8 00 00 00 00       	callq  2da <_Z9to_stringIiESsT_+0x2da>
 2da:	e9 1c ff ff ff       	jmpq   1fb <_Z9to_stringIiESsT_+0x1fb>
 2df:	90                   	nop
 2e0:	ba 00 00 00 00       	mov    $0x0,%edx
 2e5:	48 85 d2             	test   %rdx,%rdx
 2e8:	74 56                	je     340 <_Z9to_stringIiESsT_+0x340>
 2ea:	ba ff ff ff ff       	mov    $0xffffffff,%edx
 2ef:	f0 0f c1 50 f8       	lock xadd %edx,-0x8(%rax)
 2f4:	89 d0                	mov    %edx,%eax
 2f6:	85 c0                	test   %eax,%eax
 2f8:	0f 8f c4 fe ff ff    	jg     1c2 <_Z9to_stringIiESsT_+0x1c2>
 2fe:	48 8d b5 5e fe ff ff 	lea    -0x1a2(%rbp),%rsi
 305:	e8 00 00 00 00       	callq  30a <_Z9to_stringIiESsT_+0x30a>
 30a:	e9 b3 fe ff ff       	jmpq   1c2 <_Z9to_stringIiESsT_+0x1c2>
 30f:	90                   	nop
 310:	48 8d 85 70 fe ff ff 	lea    -0x190(%rbp),%rax
 317:	4c 89 f7             	mov    %r14,%rdi
 31a:	48 8d 70 50          	lea    0x50(%rax),%rsi
 31e:	e8 00 00 00 00       	callq  323 <_Z9to_stringIiESsT_+0x323>
 323:	e9 9a fe ff ff       	jmpq   1c2 <_Z9to_stringIiESsT_+0x1c2>
 328:	0f 1f 84 00 00 00 00 	nopl   0x0(%rax,%rax,1)
 32f:	00 
 330:	8b 50 f8             	mov    -0x8(%rax),%edx
 333:	8d 4a ff             	lea    -0x1(%rdx),%ecx
 336:	89 48 f8             	mov    %ecx,-0x8(%rax)
 339:	89 d0                	mov    %edx,%eax
 33b:	eb 89                	jmp    2c6 <_Z9to_stringIiESsT_+0x2c6>
 33d:	0f 1f 00             	nopl   (%rax)
 340:	8b 50 f8             	mov    -0x8(%rax),%edx
 343:	8d 4a ff             	lea    -0x1(%rdx),%ecx
 346:	89 48 f8             	mov    %ecx,-0x8(%rax)
 349:	89 d0                	mov    %edx,%eax
 34b:	eb a9                	jmp    2f6 <_Z9to_stringIiESsT_+0x2f6>
 34d:	e8 00 00 00 00       	callq  352 <_Z9to_stringIiESsT_+0x352>
 352:	49 89 c6             	mov    %rax,%r14
 355:	eb 08                	jmp    35f <_Z9to_stringIiESsT_+0x35f>
 357:	48 89 c3             	mov    %rax,%rbx
 35a:	e9 85 00 00 00       	jmpq   3e4 <_Z9to_stringIiESsT_+0x3e4>
 35f:	48 8d 85 70 fe ff ff 	lea    -0x190(%rbp),%rax
 366:	48 8d 78 08          	lea    0x8(%rax),%rdi
 36a:	e8 00 00 00 00       	callq  36f <_Z9to_stringIiESsT_+0x36f>
 36f:	48 8b 43 e8          	mov    -0x18(%rbx),%rax
 373:	48 89 9d 70 fe ff ff 	mov    %rbx,-0x190(%rbp)
 37a:	4c 89 f3             	mov    %r14,%rbx
 37d:	4c 89 a4 05 70 fe ff 	mov    %r12,-0x190(%rbp,%rax,1)
 384:	ff 
 385:	48 8d 85 70 fe ff ff 	lea    -0x190(%rbp),%rax
 38c:	48 c7 85 c8 fe ff ff 	movq   $0x0,-0x138(%rbp)
 393:	00 00 00 00 
 397:	48 8d 78 58          	lea    0x58(%rax),%rdi
 39b:	e8 00 00 00 00       	callq  3a0 <_Z9to_stringIiESsT_+0x3a0>
 3a0:	48 89 df             	mov    %rbx,%rdi
 3a3:	e8 00 00 00 00       	callq  3a8 <_Z9to_stringIiESsT_+0x3a8>
 3a8:	48 8b 85 60 fe ff ff 	mov    -0x1a0(%rbp),%rax
 3af:	48 8d 78 e8          	lea    -0x18(%rax),%rdi
 3b3:	48 81 ff 00 00 00 00 	cmp    $0x0,%rdi
 3ba:	74 0c                	je     3c8 <_Z9to_stringIiESsT_+0x3c8>
 3bc:	48 8d b5 5e fe ff ff 	lea    -0x1a2(%rbp),%rsi
 3c3:	e8 00 00 00 00       	callq  3c8 <_Z9to_stringIiESsT_+0x3c8>
 3c8:	49 8b 3e             	mov    (%r14),%rdi
 3cb:	48 83 ef 18          	sub    $0x18,%rdi
 3cf:	48 81 ff 00 00 00 00 	cmp    $0x0,%rdi
 3d6:	74 0c                	je     3e4 <_Z9to_stringIiESsT_+0x3e4>
 3d8:	48 8d b5 60 fe ff ff 	lea    -0x1a0(%rbp),%rsi
 3df:	e8 00 00 00 00       	callq  3e4 <_Z9to_stringIiESsT_+0x3e4>
 3e4:	48 8d bd 70 fe ff ff 	lea    -0x190(%rbp),%rdi
 3eb:	e8 00 00 00 00       	callq  3f0 <_Z9to_stringIiESsT_+0x3f0>
 3f0:	48 89 df             	mov    %rbx,%rdi
 3f3:	e8 00 00 00 00       	callq  3f8 <_Z9to_stringIiESsT_+0x3f8>
 3f8:	48 89 c3             	mov    %rax,%rbx
 3fb:	eb 88                	jmp    385 <_Z9to_stringIiESsT_+0x385>
 3fd:	48 89 c3             	mov    %rax,%rbx
 400:	eb c6                	jmp    3c8 <_Z9to_stringIiESsT_+0x3c8>
 402:	48 89 c3             	mov    %rax,%rbx
 405:	eb a1                	jmp    3a8 <_Z9to_stringIiESsT_+0x3a8>
 407:	eb f9                	jmp    402 <_Z9to_stringIiESsT_+0x402>

Disassembly of section .text._Z9to_stringIdESsT_:

0000000000000000 <_Z9to_stringIdESsT_>:
   0:	55                   	push   %rbp
   1:	48 89 e5             	mov    %rsp,%rbp
   4:	41 56                	push   %r14
   6:	41 54                	push   %r12
   8:	53                   	push   %rbx
   9:	49 89 fe             	mov    %rdi,%r14
   c:	48 81 ec a8 01 00 00 	sub    $0x1a8,%rsp
  13:	f2 0f 11 85 48 fe ff 	movsd  %xmm0,-0x1b8(%rbp)
  1a:	ff 
  1b:	64 48 8b 04 25 28 00 	mov    %fs:0x28,%rax
  22:	00 00 
  24:	48 89 45 d8          	mov    %rax,-0x28(%rbp)
  28:	31 c0                	xor    %eax,%eax
  2a:	48 8d 85 70 fe ff ff 	lea    -0x190(%rbp),%rax
  31:	48 8d 78 58          	lea    0x58(%rax),%rdi
  35:	e8 00 00 00 00       	callq  3a <_Z9to_stringIdESsT_+0x3a>
  3a:	48 8b 1d 00 00 00 00 	mov    0x0(%rip),%rbx        # 41 <_Z9to_stringIdESsT_+0x41>
  41:	c6 45 a8 00          	movb   $0x0,-0x58(%rbp)
  45:	48 8d bd 70 fe ff ff 	lea    -0x190(%rbp),%rdi
  4c:	4c 8b 25 00 00 00 00 	mov    0x0(%rip),%r12        # 53 <_Z9to_stringIdESsT_+0x53>
  53:	48 c7 85 c8 fe ff ff 	movq   $0x0,-0x138(%rbp)
  5a:	00 00 00 00 
  5e:	31 f6                	xor    %esi,%esi
  60:	48 c7 45 a0 00 00 00 	movq   $0x0,-0x60(%rbp)
  67:	00 
  68:	c6 45 a9 00          	movb   $0x0,-0x57(%rbp)
  6c:	48 03 7b e8          	add    -0x18(%rbx),%rdi
  70:	48 c7 45 b0 00 00 00 	movq   $0x0,-0x50(%rbp)
  77:	00 
  78:	48 c7 45 b8 00 00 00 	movq   $0x0,-0x48(%rbp)
  7f:	00 
  80:	48 c7 45 c0 00 00 00 	movq   $0x0,-0x40(%rbp)
  87:	00 
  88:	48 c7 45 c8 00 00 00 	movq   $0x0,-0x38(%rbp)
  8f:	00 
  90:	48 89 9d 70 fe ff ff 	mov    %rbx,-0x190(%rbp)
  97:	4c 89 27             	mov    %r12,(%rdi)
  9a:	e8 00 00 00 00       	callq  9f <_Z9to_stringIdESsT_+0x9f>
  9f:	48 8d 85 70 fe ff ff 	lea    -0x190(%rbp),%rax
  a6:	48 c7 85 70 fe ff ff 	movq   $0x0,-0x190(%rbp)
  ad:	00 00 00 00 
  b1:	48 c7 85 c8 fe ff ff 	movq   $0x0,-0x138(%rbp)
  b8:	00 00 00 00 
  bc:	48 c7 85 78 fe ff ff 	movq   $0x0,-0x188(%rbp)
  c3:	00 00 00 00 
  c7:	48 c7 85 80 fe ff ff 	movq   $0x0,-0x180(%rbp)
  ce:	00 00 00 00 
  d2:	48 8d 78 40          	lea    0x40(%rax),%rdi
  d6:	48 c7 85 88 fe ff ff 	movq   $0x0,-0x178(%rbp)
  dd:	00 00 00 00 
  e1:	48 c7 85 90 fe ff ff 	movq   $0x0,-0x170(%rbp)
  e8:	00 00 00 00 
  ec:	48 c7 85 98 fe ff ff 	movq   $0x0,-0x168(%rbp)
  f3:	00 00 00 00 
  f7:	48 c7 85 a0 fe ff ff 	movq   $0x0,-0x160(%rbp)
  fe:	00 00 00 00 
 102:	48 c7 85 a8 fe ff ff 	movq   $0x0,-0x158(%rbp)
 109:	00 00 00 00 
 10d:	e8 00 00 00 00       	callq  112 <_Z9to_stringIdESsT_+0x112>
 112:	48 8d 85 70 fe ff ff 	lea    -0x190(%rbp),%rax
 119:	48 c7 85 78 fe ff ff 	movq   $0x0,-0x188(%rbp)
 120:	00 00 00 00 
 124:	c7 85 b8 fe ff ff 10 	movl   $0x10,-0x148(%rbp)
 12b:	00 00 00 
 12e:	48 c7 85 c0 fe ff ff 	movq   $0x0,-0x140(%rbp)
 135:	00 00 00 00 
 139:	48 8d 70 08          	lea    0x8(%rax),%rsi
 13d:	48 8d 78 58          	lea    0x58(%rax),%rdi
 141:	e8 00 00 00 00       	callq  146 <_Z9to_stringIdESsT_+0x146>
 146:	f2 0f 10 85 48 fe ff 	movsd  -0x1b8(%rbp),%xmm0
 14d:	ff 
 14e:	48 8d bd 70 fe ff ff 	lea    -0x190(%rbp),%rdi
 155:	e8 00 00 00 00       	callq  15a <_Z9to_stringIdESsT_+0x15a>
 15a:	48 8b 85 a0 fe ff ff 	mov    -0x160(%rbp),%rax
 161:	49 c7 06 00 00 00 00 	movq   $0x0,(%r14)
 168:	48 85 c0             	test   %rax,%rax
 16b:	0f 84 9f 01 00 00    	je     310 <_Z9to_stringIdESsT_+0x310>
 171:	48 8b b5 90 fe ff ff 	mov    -0x170(%rbp),%rsi
 178:	48 39 f0             	cmp    %rsi,%rax
 17b:	0f 87 ef 00 00 00    	ja     270 <_Z9to_stringIdESsT_+0x270>
 181:	48 83 ec 08          	sub    $0x8,%rsp
 185:	48 8b bd 98 fe ff ff 	mov    -0x168(%rbp),%rdi
 18c:	48 8d 95 5f fe ff ff 	lea    -0x1a1(%rbp),%rdx
 193:	6a 00                	pushq  $0x0
 195:	e8 00 00 00 00       	callq  19a <_Z9to_stringIdESsT_+0x19a>
 19a:	5a                   	pop    %rdx
 19b:	59                   	pop    %rcx
 19c:	48 8d b5 60 fe ff ff 	lea    -0x1a0(%rbp),%rsi
 1a3:	4c 89 f7             	mov    %r14,%rdi
 1a6:	48 89 85 60 fe ff ff 	mov    %rax,-0x1a0(%rbp)
 1ad:	e8 00 00 00 00       	callq  1b2 <_Z9to_stringIdESsT_+0x1b2>
 1b2:	48 8b 85 60 fe ff ff 	mov    -0x1a0(%rbp),%rax
 1b9:	48 8d 78 e8          	lea    -0x18(%rax),%rdi
 1bd:	48 81 ff 00 00 00 00 	cmp    $0x0,%rdi
 1c4:	0f 85 16 01 00 00    	jne    2e0 <_Z9to_stringIdESsT_+0x2e0>
 1ca:	48 8b 85 c0 fe ff ff 	mov    -0x140(%rbp),%rax
 1d1:	48 c7 85 70 fe ff ff 	movq   $0x0,-0x190(%rbp)
 1d8:	00 00 00 00 
 1dc:	48 c7 85 c8 fe ff ff 	movq   $0x0,-0x138(%rbp)
 1e3:	00 00 00 00 
 1e7:	48 c7 85 78 fe ff ff 	movq   $0x0,-0x188(%rbp)
 1ee:	00 00 00 00 
 1f2:	48 8d 78 e8          	lea    -0x18(%rax),%rdi
 1f6:	48 81 ff 00 00 00 00 	cmp    $0x0,%rdi
 1fd:	0f 85 ad 00 00 00    	jne    2b0 <_Z9to_stringIdESsT_+0x2b0>
 203:	48 8d 85 70 fe ff ff 	lea    -0x190(%rbp),%rax
 20a:	48 c7 85 78 fe ff ff 	movq   $0x0,-0x188(%rbp)
 211:	00 00 00 00 
 215:	48 8d 78 40          	lea    0x40(%rax),%rdi
 219:	e8 00 00 00 00       	callq  21e <_Z9to_stringIdESsT_+0x21e>
 21e:	48 8b 43 e8          	mov    -0x18(%rbx),%rax
 222:	48 89 9d 70 fe ff ff 	mov    %rbx,-0x190(%rbp)
 229:	4c 89 a4 05 70 fe ff 	mov    %r12,-0x190(%rbp,%rax,1)
 230:	ff 
 231:	48 8d 85 70 fe ff ff 	lea    -0x190(%rbp),%rax
 238:	48 c7 85 c8 fe ff ff 	movq   $0x0,-0x138(%rbp)
 23f:	00 00 00 00 
 243:	48 8d 78 58          	lea    0x58(%rax),%rdi
 247:	e8 00 00 00 00       	callq  24c <_Z9to_stringIdESsT_+0x24c>
 24c:	48 8b 4d d8          	mov    -0x28(%rbp),%rcx
 250:	64 48 33 0c 25 28 00 	xor    %fs:0x28,%rcx
 257:	00 00 
 259:	4c 89 f0             	mov    %r14,%rax
 25c:	0f 85 eb 00 00 00    	jne    34d <_Z9to_stringIdESsT_+0x34d>
 262:	48 8d 65 e8          	lea    -0x18(%rbp),%rsp
 266:	5b                   	pop    %rbx
 267:	41 5c                	pop    %r12
 269:	41 5e                	pop    %r14
 26b:	5d                   	pop    %rbp
 26c:	c3                   	retq   
 26d:	0f 1f 00             	nopl   (%rax)
 270:	48 83 ec 08          	sub    $0x8,%rsp
 274:	48 8b bd 98 fe ff ff 	mov    -0x168(%rbp),%rdi
 27b:	48 8d 95 5f fe ff ff 	lea    -0x1a1(%rbp),%rdx
 282:	6a 00                	pushq  $0x0
 284:	48 89 c6             	mov    %rax,%rsi
 287:	e8 00 00 00 00       	callq  28c <_Z9to_stringIdESsT_+0x28c>
 28c:	5e                   	pop    %rsi
 28d:	5f                   	pop    %rdi
 28e:	48 8d b5 60 fe ff ff 	lea    -0x1a0(%rbp),%rsi
 295:	4c 89 f7             	mov    %r14,%rdi
 298:	48 89 85 60 fe ff ff 	mov    %rax,-0x1a0(%rbp)
 29f:	e8 00 00 00 00       	callq  2a4 <_Z9to_stringIdESsT_+0x2a4>
 2a4:	e9 09 ff ff ff       	jmpq   1b2 <_Z9to_stringIdESsT_+0x1b2>
 2a9:	0f 1f 80 00 00 00 00 	nopl   0x0(%rax)
 2b0:	ba 00 00 00 00       	mov    $0x0,%edx
 2b5:	48 85 d2             	test   %rdx,%rdx
 2b8:	74 76                	je     330 <_Z9to_stringIdESsT_+0x330>
 2ba:	ba ff ff ff ff       	mov    $0xffffffff,%edx
 2bf:	f0 0f c1 50 f8       	lock xadd %edx,-0x8(%rax)
 2c4:	89 d0                	mov    %edx,%eax
 2c6:	85 c0                	test   %eax,%eax
 2c8:	0f 8f 35 ff ff ff    	jg     203 <_Z9to_stringIdESsT_+0x203>
 2ce:	48 8d b5 60 fe ff ff 	lea    -0x1a0(%rbp),%rsi
 2d5:	e8 00 00 00 00       	callq  2da <_Z9to_stringIdESsT_+0x2da>
 2da:	e9 24 ff ff ff       	jmpq   203 <_Z9to_stringIdESsT_+0x203>
 2df:	90                   	nop
 2e0:	ba 00 00 00 00       	mov    $0x0,%edx
 2e5:	48 85 d2             	test   %rdx,%rdx
 2e8:	74 56                	je     340 <_Z9to_stringIdESsT_+0x340>
 2ea:	ba ff ff ff ff       	mov    $0xffffffff,%edx
 2ef:	f0 0f c1 50 f8       	lock xadd %edx,-0x8(%rax)
 2f4:	89 d0                	mov    %edx,%eax
 2f6:	85 c0                	test   %eax,%eax
 2f8:	0f 8f cc fe ff ff    	jg     1ca <_Z9to_stringIdESsT_+0x1ca>
 2fe:	48 8d b5 5e fe ff ff 	lea    -0x1a2(%rbp),%rsi
 305:	e8 00 00 00 00       	callq  30a <_Z9to_stringIdESsT_+0x30a>
 30a:	e9 bb fe ff ff       	jmpq   1ca <_Z9to_stringIdESsT_+0x1ca>
 30f:	90                   	nop
 310:	48 8d 85 70 fe ff ff 	lea    -0x190(%rbp),%rax
 317:	4c 89 f7             	mov    %r14,%rdi
 31a:	48 8d 70 50          	lea    0x50(%rax),%rsi
 31e:	e8 00 00 00 00       	callq  323 <_Z9to_stringIdESsT_+0x323>
 323:	e9 a2 fe ff ff       	jmpq   1ca <_Z9to_stringIdESsT_+0x1ca>
 328:	0f 1f 84 00 00 00 00 	nopl   0x0(%rax,%rax,1)
 32f:	00 
 330:	8b 50 f8             	mov    -0x8(%rax),%edx
 333:	8d 4a ff             	lea    -0x1(%rdx),%ecx
 336:	89 48 f8             	mov    %ecx,-0x8(%rax)
 339:	89 d0                	mov    %edx,%eax
 33b:	eb 89                	jmp    2c6 <_Z9to_stringIdESsT_+0x2c6>
 33d:	0f 1f 00             	nopl   (%rax)
 340:	8b 50 f8             	mov    -0x8(%rax),%edx
 343:	8d 4a ff             	lea    -0x1(%rdx),%ecx
 346:	89 48 f8             	mov    %ecx,-0x8(%rax)
 349:	89 d0                	mov    %edx,%eax
 34b:	eb a9                	jmp    2f6 <_Z9to_stringIdESsT_+0x2f6>
 34d:	e8 00 00 00 00       	callq  352 <_Z9to_stringIdESsT_+0x352>
 352:	49 89 c6             	mov    %rax,%r14
 355:	eb 08                	jmp    35f <_Z9to_stringIdESsT_+0x35f>
 357:	48 89 c3             	mov    %rax,%rbx
 35a:	e9 85 00 00 00       	jmpq   3e4 <_Z9to_stringIdESsT_+0x3e4>
 35f:	48 8d 85 70 fe ff ff 	lea    -0x190(%rbp),%rax
 366:	48 8d 78 08          	lea    0x8(%rax),%rdi
 36a:	e8 00 00 00 00       	callq  36f <_Z9to_stringIdESsT_+0x36f>
 36f:	48 8b 43 e8          	mov    -0x18(%rbx),%rax
 373:	48 89 9d 70 fe ff ff 	mov    %rbx,-0x190(%rbp)
 37a:	4c 89 f3             	mov    %r14,%rbx
 37d:	4c 89 a4 05 70 fe ff 	mov    %r12,-0x190(%rbp,%rax,1)
 384:	ff 
 385:	48 8d 85 70 fe ff ff 	lea    -0x190(%rbp),%rax
 38c:	48 c7 85 c8 fe ff ff 	movq   $0x0,-0x138(%rbp)
 393:	00 00 00 00 
 397:	48 8d 78 58          	lea    0x58(%rax),%rdi
 39b:	e8 00 00 00 00       	callq  3a0 <_Z9to_stringIdESsT_+0x3a0>
 3a0:	48 89 df             	mov    %rbx,%rdi
 3a3:	e8 00 00 00 00       	callq  3a8 <_Z9to_stringIdESsT_+0x3a8>
 3a8:	48 8b 85 60 fe ff ff 	mov    -0x1a0(%rbp),%rax
 3af:	48 8d 78 e8          	lea    -0x18(%rax),%rdi
 3b3:	48 81 ff 00 00 00 00 	cmp    $0x0,%rdi
 3ba:	74 0c                	je     3c8 <_Z9to_stringIdESsT_+0x3c8>
 3bc:	48 8d b5 5e fe ff ff 	lea    -0x1a2(%rbp),%rsi
 3c3:	e8 00 00 00 00       	callq  3c8 <_Z9to_stringIdESsT_+0x3c8>
 3c8:	49 8b 3e             	mov    (%r14),%rdi
 3cb:	48 83 ef 18          	sub    $0x18,%rdi
 3cf:	48 81 ff 00 00 00 00 	cmp    $0x0,%rdi
 3d6:	74 0c                	je     3e4 <_Z9to_stringIdESsT_+0x3e4>
 3d8:	48 8d b5 60 fe ff ff 	lea    -0x1a0(%rbp),%rsi
 3df:	e8 00 00 00 00       	callq  3e4 <_Z9to_stringIdESsT_+0x3e4>
 3e4:	48 8d bd 70 fe ff ff 	lea    -0x190(%rbp),%rdi
 3eb:	e8 00 00 00 00       	callq  3f0 <_Z9to_stringIdESsT_+0x3f0>
 3f0:	48 89 df             	mov    %rbx,%rdi
 3f3:	e8 00 00 00 00       	callq  3f8 <_Z9to_stringIdESsT_+0x3f8>
 3f8:	48 89 c3             	mov    %rax,%rbx
 3fb:	eb 88                	jmp    385 <_Z9to_stringIdESsT_+0x385>
 3fd:	48 89 c3             	mov    %rax,%rbx
 400:	eb c6                	jmp    3c8 <_Z9to_stringIdESsT_+0x3c8>
 402:	48 89 c3             	mov    %rax,%rbx
 405:	eb a1                	jmp    3a8 <_Z9to_stringIdESsT_+0x3a8>
 407:	eb f9                	jmp    402 <_Z9to_stringIdESsT_+0x402>

Disassembly of section .text._ZN2sf4TextD2Ev:

0000000000000000 <_ZN2sf4TextD1Ev>:
   0:	53                   	push   %rbx
   1:	48 89 fb             	mov    %rdi,%rbx
   4:	48 c7 07 00 00 00 00 	movq   $0x0,(%rdi)
   b:	48 c7 47 08 00 00 00 	movq   $0x0,0x8(%rdi)
  12:	00 
  13:	48 c7 87 d8 00 00 00 	movq   $0x0,0xd8(%rdi)
  1a:	00 00 00 00 
  1e:	48 8b bf e0 00 00 00 	mov    0xe0(%rdi),%rdi
  25:	48 85 ff             	test   %rdi,%rdi
  28:	74 05                	je     2f <_ZN2sf4TextD1Ev+0x2f>
  2a:	e8 00 00 00 00       	callq  2f <_ZN2sf4TextD1Ev+0x2f>
  2f:	48 8b 83 b8 00 00 00 	mov    0xb8(%rbx),%rax
  36:	48 8d 78 e8          	lea    -0x18(%rax),%rdi
  3a:	48 81 ff 00 00 00 00 	cmp    $0x0,%rdi
  41:	75 0d                	jne    50 <_ZN2sf4TextD1Ev+0x50>
  43:	48 8d 7b 08          	lea    0x8(%rbx),%rdi
  47:	e8 00 00 00 00       	callq  4c <_ZN2sf4TextD1Ev+0x4c>
  4c:	5b                   	pop    %rbx
  4d:	c3                   	retq   
  4e:	66 90                	xchg   %ax,%ax
  50:	ba 00 00 00 00       	mov    $0x0,%edx
  55:	48 85 d2             	test   %rdx,%rdx
  58:	74 1e                	je     78 <_ZN2sf4TextD1Ev+0x78>
  5a:	ba ff ff ff ff       	mov    $0xffffffff,%edx
  5f:	f0 0f c1 50 f8       	lock xadd %edx,-0x8(%rax)
  64:	89 d0                	mov    %edx,%eax
  66:	85 c0                	test   %eax,%eax
  68:	7f d9                	jg     43 <_ZN2sf4TextD1Ev+0x43>
  6a:	e8 00 00 00 00       	callq  6f <_ZN2sf4TextD1Ev+0x6f>
  6f:	eb d2                	jmp    43 <_ZN2sf4TextD1Ev+0x43>
  71:	0f 1f 80 00 00 00 00 	nopl   0x0(%rax)
  78:	8b 50 f8             	mov    -0x8(%rax),%edx
  7b:	8d 4a ff             	lea    -0x1(%rdx),%ecx
  7e:	89 48 f8             	mov    %ecx,-0x8(%rax)
  81:	89 d0                	mov    %edx,%eax
  83:	eb e1                	jmp    66 <_ZN2sf4TextD1Ev+0x66>

Disassembly of section .text._ZN2sf4TextD1Ev:

0000000000000000 <_ZThn8_N2sf4TextD1Ev>:
   0:	48 83 ef 08          	sub    $0x8,%rdi
   4:	e9 00 00 00 00       	jmpq   9 <backgroundFile+0x1>

Disassembly of section .text._ZN2sf4TextD0Ev:

0000000000000000 <_ZN2sf4TextD0Ev>:
   0:	53                   	push   %rbx
   1:	48 89 fb             	mov    %rdi,%rbx
   4:	48 c7 07 00 00 00 00 	movq   $0x0,(%rdi)
   b:	48 c7 47 08 00 00 00 	movq   $0x0,0x8(%rdi)
  12:	00 
  13:	48 c7 87 d8 00 00 00 	movq   $0x0,0xd8(%rdi)
  1a:	00 00 00 00 
  1e:	48 8b bf e0 00 00 00 	mov    0xe0(%rdi),%rdi
  25:	48 85 ff             	test   %rdi,%rdi
  28:	74 05                	je     2f <_ZN2sf4TextD0Ev+0x2f>
  2a:	e8 00 00 00 00       	callq  2f <_ZN2sf4TextD0Ev+0x2f>
  2f:	48 8b 83 b8 00 00 00 	mov    0xb8(%rbx),%rax
  36:	48 8d 78 e8          	lea    -0x18(%rax),%rdi
  3a:	48 81 ff 00 00 00 00 	cmp    $0x0,%rdi
  41:	75 15                	jne    58 <_ZN2sf4TextD0Ev+0x58>
  43:	48 8d 7b 08          	lea    0x8(%rbx),%rdi
  47:	e8 00 00 00 00       	callq  4c <_ZN2sf4TextD0Ev+0x4c>
  4c:	48 89 df             	mov    %rbx,%rdi
  4f:	5b                   	pop    %rbx
  50:	e9 00 00 00 00       	jmpq   55 <_ZN2sf4TextD0Ev+0x55>
  55:	0f 1f 00             	nopl   (%rax)
  58:	ba 00 00 00 00       	mov    $0x0,%edx
  5d:	48 85 d2             	test   %rdx,%rdx
  60:	74 1e                	je     80 <_ZN2sf4TextD0Ev+0x80>
  62:	ba ff ff ff ff       	mov    $0xffffffff,%edx
  67:	f0 0f c1 50 f8       	lock xadd %edx,-0x8(%rax)
  6c:	89 d0                	mov    %edx,%eax
  6e:	85 c0                	test   %eax,%eax
  70:	7f d1                	jg     43 <_ZN2sf4TextD0Ev+0x43>
  72:	e8 00 00 00 00       	callq  77 <_ZN2sf4TextD0Ev+0x77>
  77:	eb ca                	jmp    43 <_ZN2sf4TextD0Ev+0x43>
  79:	0f 1f 80 00 00 00 00 	nopl   0x0(%rax)
  80:	8b 50 f8             	mov    -0x8(%rax),%edx
  83:	8d 4a ff             	lea    -0x1(%rdx),%ecx
  86:	89 48 f8             	mov    %ecx,-0x8(%rax)
  89:	89 d0                	mov    %edx,%eax
  8b:	eb e1                	jmp    6e <_ZN2sf4TextD0Ev+0x6e>
  8d:	0f 1f 00             	nopl   (%rax)

0000000000000090 <_ZThn8_N2sf4TextD0Ev>:
  90:	48 83 ef 08          	sub    $0x8,%rdi
  94:	e9 67 ff ff ff       	jmpq   0 <_ZN2sf4TextD0Ev>

Disassembly of section .text.startup:

0000000000000000 <_GLOBAL__sub_I_powerupCount>:
       0:	53                   	push   %rbx
       1:	bf 00 00 00 00       	mov    $0x0,%edi
       6:	48 83 ec 20          	sub    $0x20,%rsp
       a:	64 48 8b 04 25 28 00 	mov    %fs:0x28,%rax
      11:	00 00 
      13:	48 89 44 24 18       	mov    %rax,0x18(%rsp)
      18:	31 c0                	xor    %eax,%eax
      1a:	e8 00 00 00 00       	callq  1f <_GLOBAL__sub_I_powerupCount+0x1f>
      1f:	ba 00 00 00 00       	mov    $0x0,%edx
      24:	be 00 00 00 00       	mov    $0x0,%esi
      29:	bf 00 00 00 00       	mov    $0x0,%edi
      2e:	e8 00 00 00 00       	callq  33 <_GLOBAL__sub_I_powerupCount+0x33>
      33:	48 8d 54 24 10       	lea    0x10(%rsp),%rdx
      38:	be 00 00 00 00       	mov    $0x0,%esi
      3d:	bf 00 00 00 00       	mov    $0x0,%edi
      42:	e8 00 00 00 00       	callq  47 <_GLOBAL__sub_I_powerupCount+0x47>
      47:	ba 00 00 00 00       	mov    $0x0,%edx
      4c:	be 00 00 00 00       	mov    $0x0,%esi
      51:	bf 00 00 00 00       	mov    $0x0,%edi
      56:	e8 00 00 00 00       	callq  5b <_GLOBAL__sub_I_powerupCount+0x5b>
      5b:	48 8d 54 24 10       	lea    0x10(%rsp),%rdx
      60:	be 00 00 00 00       	mov    $0x0,%esi
      65:	bf 00 00 00 00       	mov    $0x0,%edi
      6a:	e8 00 00 00 00       	callq  6f <_GLOBAL__sub_I_powerupCount+0x6f>
      6f:	ba 00 00 00 00       	mov    $0x0,%edx
      74:	be 00 00 00 00       	mov    $0x0,%esi
      79:	bf 00 00 00 00       	mov    $0x0,%edi
      7e:	e8 00 00 00 00       	callq  83 <_GLOBAL__sub_I_powerupCount+0x83>
      83:	48 8d 7c 24 10       	lea    0x10(%rsp),%rdi
      88:	ba 00 00 00 00       	mov    $0x0,%edx
      8d:	be 00 00 00 00       	mov    $0x0,%esi
      92:	e8 00 00 00 00       	callq  97 <_GLOBAL__sub_I_powerupCount+0x97>
      97:	48 8d 74 24 10       	lea    0x10(%rsp),%rsi
      9c:	ba 00 00 00 00       	mov    $0x0,%edx
      a1:	bf 00 00 00 00       	mov    $0x0,%edi
      a6:	e8 00 00 00 00       	callq  ab <_GLOBAL__sub_I_powerupCount+0xab>
      ab:	48 8b 44 24 10       	mov    0x10(%rsp),%rax
      b0:	48 8d 78 e8          	lea    -0x18(%rax),%rdi
      b4:	48 81 ff 00 00 00 00 	cmp    $0x0,%rdi
      bb:	75 2a                	jne    e7 <_GLOBAL__sub_I_powerupCount+0xe7>
      bd:	ba 00 00 00 00       	mov    $0x0,%edx
      c2:	be 00 00 00 00       	mov    $0x0,%esi
      c7:	bf 00 00 00 00       	mov    $0x0,%edi
      cc:	e8 00 00 00 00       	callq  d1 <_GLOBAL__sub_I_powerupCount+0xd1>
      d1:	48 8b 44 24 18       	mov    0x18(%rsp),%rax
      d6:	64 48 33 04 25 28 00 	xor    %fs:0x28,%rax
      dd:	00 00 
      df:	75 12                	jne    f3 <_GLOBAL__sub_I_powerupCount+0xf3>
      e1:	48 83 c4 20          	add    $0x20,%rsp
      e5:	5b                   	pop    %rbx
      e6:	c3                   	retq   
      e7:	48 8d 74 24 0f       	lea    0xf(%rsp),%rsi
      ec:	e8 00 00 00 00       	callq  f1 <_GLOBAL__sub_I_powerupCount+0xf1>
      f1:	eb ca                	jmp    bd <_GLOBAL__sub_I_powerupCount+0xbd>
      f3:	e8 00 00 00 00       	callq  f8 <_GLOBAL__sub_I_powerupCount+0xf8>
      f8:	48 89 c3             	mov    %rax,%rbx
      fb:	48 8b 44 24 10       	mov    0x10(%rsp),%rax
     100:	48 8d 78 e8          	lea    -0x18(%rax),%rdi
     104:	48 81 ff 00 00 00 00 	cmp    $0x0,%rdi
     10b:	74 0a                	je     117 <_GLOBAL__sub_I_powerupCount+0x117>
     10d:	48 8d 74 24 0f       	lea    0xf(%rsp),%rsi
     112:	e8 00 00 00 00       	callq  117 <_GLOBAL__sub_I_powerupCount+0x117>
     117:	48 89 df             	mov    %rbx,%rdi
     11a:	e8 00 00 00 00       	callq  11f <_GLOBAL__sub_I_powerupCount+0x11f>
     11f:	90                   	nop

0000000000000120 <main>:
     120:	55                   	push   %rbp
     121:	48 89 e5             	mov    %rsp,%rbp
     124:	41 57                	push   %r15
     126:	41 56                	push   %r14
     128:	41 55                	push   %r13
     12a:	41 54                	push   %r12
     12c:	48 8d bd 50 72 fa ff 	lea    -0x58db0(%rbp),%rdi
     133:	53                   	push   %rbx
     134:	48 81 ec d8 8d 05 00 	sub    $0x58dd8,%rsp
     13b:	64 48 8b 04 25 28 00 	mov    %fs:0x28,%rax
     142:	00 00 
     144:	48 89 45 c8          	mov    %rax,-0x38(%rbp)
     148:	31 c0                	xor    %eax,%eax
     14a:	e8 00 00 00 00       	callq  14f <main+0x2f>
     14f:	48 8d bd 00 74 fa ff 	lea    -0x58c00(%rbp),%rdi
     156:	e8 00 00 00 00       	callq  15b <main+0x3b>
     15b:	48 8d bd 10 7d fa ff 	lea    -0x582f0(%rbp),%rdi
     162:	e8 00 00 00 00       	callq  167 <main+0x47>
     167:	48 8d bd 20 74 fa ff 	lea    -0x58be0(%rbp),%rdi
     16e:	48 c7 85 60 72 fa ff 	movq   $0x0,-0x58da0(%rbp)
     175:	00 00 00 00 
     179:	c6 85 3d 72 fa ff 01 	movb   $0x1,-0x58dc3(%rbp)
     180:	c6 85 3e 72 fa ff 00 	movb   $0x0,-0x58dc2(%rbp)
     187:	e8 00 00 00 00       	callq  18c <main+0x6c>
     18c:	48 8d bd 90 74 fa ff 	lea    -0x58b70(%rbp),%rdi
     193:	e8 00 00 00 00       	callq  198 <main+0x78>
     198:	48 8d bd a0 75 fa ff 	lea    -0x58a60(%rbp),%rdi
     19f:	e8 00 00 00 00       	callq  1a4 <main+0x84>
     1a4:	48 8d bd b0 76 fa ff 	lea    -0x58950(%rbp),%rdi
     1ab:	e8 00 00 00 00       	callq  1b0 <main+0x90>
     1b0:	48 8d bd c0 77 fa ff 	lea    -0x58840(%rbp),%rdi
     1b7:	e8 00 00 00 00       	callq  1bc <main+0x9c>
     1bc:	48 8d bd d0 78 fa ff 	lea    -0x58730(%rbp),%rdi
     1c3:	e8 00 00 00 00       	callq  1c8 <main+0xa8>
     1c8:	48 8d bd e0 79 fa ff 	lea    -0x58620(%rbp),%rdi
     1cf:	e8 00 00 00 00       	callq  1d4 <main+0xb4>
     1d4:	48 8d bd f0 7a fa ff 	lea    -0x58510(%rbp),%rdi
     1db:	e8 00 00 00 00       	callq  1e0 <main+0xc0>
     1e0:	48 8d bd 00 7c fa ff 	lea    -0x58400(%rbp),%rdi
     1e7:	e8 00 00 00 00       	callq  1ec <main+0xcc>
     1ec:	8b 05 00 00 00 00    	mov    0x0(%rip),%eax        # 1f2 <main+0xd2>
     1f2:	89 85 40 72 fa ff    	mov    %eax,-0x58dc0(%rbp)
     1f8:	48 8d 85 30 7e fa ff 	lea    -0x581d0(%rbp),%rax
     1ff:	48 8d 78 10          	lea    0x10(%rax),%rdi
     203:	e8 00 00 00 00       	callq  208 <main+0xe8>
     208:	48 8d 85 30 7e fa ff 	lea    -0x581d0(%rbp),%rax
     20f:	48 8d 78 38          	lea    0x38(%rax),%rdi
     213:	e8 00 00 00 00       	callq  218 <main+0xf8>
     218:	48 8d 95 e0 73 fa ff 	lea    -0x58c20(%rbp),%rdx
     21f:	48 8d bd 70 72 fa ff 	lea    -0x58d90(%rbp),%rdi
     226:	be 00 00 00 00       	mov    $0x0,%esi
     22b:	c7 85 34 7e fa ff 00 	movl   $0x0,-0x581cc(%rbp)
     232:	00 00 00 
     235:	c7 85 38 7e fa ff 00 	movl   $0x0,-0x581c8(%rbp)
     23c:	00 00 00 
     23f:	e8 00 00 00 00       	callq  244 <main+0x124>
     244:	e8 00 00 00 00       	callq  249 <main+0x129>
     249:	eb 21                	jmp    26c <main+0x14c>
     24b:	0f 1f 44 00 00       	nopl   0x0(%rax,%rax,1)
     250:	48 8d b5 70 72 fa ff 	lea    -0x58d90(%rbp),%rsi
     257:	48 8d bd 3e 72 fa ff 	lea    -0x58dc2(%rbp),%rdi
     25e:	e8 00 00 00 00       	callq  263 <main+0x143>
     263:	83 f8 01             	cmp    $0x1,%eax
     266:	0f 84 a0 0a 00 00    	je     d0c <main+0xbec>
     26c:	80 bd 3e 72 fa ff 00 	cmpb   $0x0,-0x58dc2(%rbp)
     273:	74 db                	je     250 <main+0x130>
     275:	48 8d bd 70 72 fa ff 	lea    -0x58d90(%rbp),%rdi
     27c:	be 00 00 00 00       	mov    $0x0,%esi
     281:	e8 00 00 00 00       	callq  286 <main+0x166>
     286:	48 8d 9d 80 81 fa ff 	lea    -0x57e80(%rbp),%rbx
     28d:	41 bd f3 01 00 00    	mov    $0x1f3,%r13d
     293:	49 89 dc             	mov    %rbx,%r12
     296:	66 2e 0f 1f 84 00 00 	nopw   %cs:0x0(%rax,%rax,1)
     29d:	00 00 00 
     2a0:	4d 8d 74 24 20       	lea    0x20(%r12),%r14
     2a5:	48 8d b5 c0 73 fa ff 	lea    -0x58c40(%rbp),%rsi
     2ac:	c7 85 c0 73 fa ff 00 	movl   $0x0,-0x58c40(%rbp)
     2b3:	00 00 00 
     2b6:	c7 85 c4 73 fa ff 00 	movl   $0x0,-0x58c3c(%rbp)
     2bd:	00 00 00 
     2c0:	4c 89 f7             	mov    %r14,%rdi
     2c3:	e8 00 00 00 00       	callq  2c8 <main+0x1a8>
     2c8:	49 8d bc 24 78 01 00 	lea    0x178(%r12),%rdi
     2cf:	00 
     2d0:	48 8d b5 e0 73 fa ff 	lea    -0x58c20(%rbp),%rsi
     2d7:	c7 85 e0 73 fa ff 00 	movl   $0x0,-0x58c20(%rbp)
     2de:	00 00 00 
     2e1:	c7 85 e4 73 fa ff 00 	movl   $0x0,-0x58c1c(%rbp)
     2e8:	00 00 00 
     2eb:	e8 00 00 00 00       	callq  2f0 <main+0x1d0>
     2f0:	49 83 ed 01          	sub    $0x1,%r13
     2f4:	49 81 c4 d0 02 00 00 	add    $0x2d0,%r12
     2fb:	49 83 fd ff          	cmp    $0xffffffffffffffff,%r13
     2ff:	75 9f                	jne    2a0 <main+0x180>
     301:	48 8d bd c0 73 fa ff 	lea    -0x58c40(%rbp),%rdi
     308:	c7 85 e0 73 fa ff 00 	movl   $0x0,-0x58c20(%rbp)
     30f:	00 00 00 
     312:	c7 85 e4 73 fa ff 00 	movl   $0x0,-0x58c1c(%rbp)
     319:	00 00 00 
     31c:	c7 85 e8 73 fa ff 00 	movl   $0x0,-0x58c18(%rbp)
     323:	00 00 00 
     326:	c7 85 ec 73 fa ff 02 	movl   $0x2,-0x58c14(%rbp)
     32d:	00 00 00 
     330:	c7 85 f0 73 fa ff 00 	movl   $0x0,-0x58c10(%rbp)
     337:	00 00 00 
     33a:	e8 00 00 00 00       	callq  33f <main+0x21f>
     33f:	48 8d 95 c0 73 fa ff 	lea    -0x58c40(%rbp),%rdx
     346:	48 8d bd 80 72 fa ff 	lea    -0x58d80(%rbp),%rdi
     34d:	be 00 00 00 00       	mov    $0x0,%esi
     352:	e8 00 00 00 00       	callq  357 <main+0x237>
     357:	48 8d bd d0 73 fa ff 	lea    -0x58c30(%rbp),%rdi
     35e:	b9 20 00 00 00       	mov    $0x20,%ecx
     363:	ba d0 02 00 00       	mov    $0x2d0,%edx
     368:	be 00 05 00 00       	mov    $0x500,%esi
     36d:	e8 00 00 00 00       	callq  372 <main+0x252>
     372:	48 8b b5 d0 73 fa ff 	mov    -0x58c30(%rbp),%rsi
     379:	8b 95 d8 73 fa ff    	mov    -0x58c28(%rbp),%edx
     37f:	4c 8d 8d e0 73 fa ff 	lea    -0x58c20(%rbp),%r9
     386:	48 8d 8d 80 72 fa ff 	lea    -0x58d80(%rbp),%rcx
     38d:	48 8d bd 90 7f fa ff 	lea    -0x58070(%rbp),%rdi
     394:	41 b8 07 00 00 00    	mov    $0x7,%r8d
     39a:	e8 00 00 00 00       	callq  39f <main+0x27f>
     39f:	48 8b 85 80 72 fa ff 	mov    -0x58d80(%rbp),%rax
     3a6:	48 8d 78 e8          	lea    -0x18(%rax),%rdi
     3aa:	e8 00 00 00 00       	callq  3af <main+0x28f>
     3af:	48 8d bd c0 73 fa ff 	lea    -0x58c40(%rbp),%rdi
     3b6:	e8 00 00 00 00       	callq  3bb <main+0x29b>
     3bb:	48 8d bd 90 7f fa ff 	lea    -0x58070(%rbp),%rdi
     3c2:	be 3c 00 00 00       	mov    $0x3c,%esi
     3c7:	e8 00 00 00 00       	callq  3cc <main+0x2ac>
     3cc:	c6 85 0f 72 fa ff 00 	movb   $0x0,-0x58df1(%rbp)
     3d3:	c7 85 20 72 fa ff 00 	movl   $0x0,-0x58de0(%rbp)
     3da:	00 00 00 
     3dd:	c7 85 24 72 fa ff 00 	movl   $0x0,-0x58ddc(%rbp)
     3e4:	00 00 00 
     3e7:	be 00 00 00 00       	mov    $0x0,%esi
     3ec:	bf 00 00 00 00       	mov    $0x0,%edi
     3f1:	48 89 a5 10 72 fa ff 	mov    %rsp,-0x58df0(%rbp)
     3f8:	e8 00 00 00 00       	callq  3fd <main+0x2dd>
     3fd:	85 c0                	test   %eax,%eax
     3ff:	0f 84 5a 10 00 00    	je     145f <main+0x133f>
     405:	48 8d bd 90 72 fa ff 	lea    -0x58d70(%rbp),%rdi
     40c:	ba 00 00 00 00       	mov    $0x0,%edx
     411:	be 00 00 00 00       	mov    $0x0,%esi
     416:	e8 00 00 00 00       	callq  41b <main+0x2fb>
     41b:	48 8d b5 90 72 fa ff 	lea    -0x58d70(%rbp),%rsi
     422:	48 8d bd a0 72 fa ff 	lea    -0x58d60(%rbp),%rdi
     429:	ba 00 00 00 00       	mov    $0x0,%edx
     42e:	e8 00 00 00 00       	callq  433 <main+0x313>
     433:	48 8d b5 a0 72 fa ff 	lea    -0x58d60(%rbp),%rsi
     43a:	bf 00 00 00 00       	mov    $0x0,%edi
     43f:	e8 00 00 00 00       	callq  444 <main+0x324>
     444:	48 8b 85 a0 72 fa ff 	mov    -0x58d60(%rbp),%rax
     44b:	48 8d 78 e8          	lea    -0x18(%rax),%rdi
     44f:	48 81 ff 00 00 00 00 	cmp    $0x0,%rdi
     456:	0f 85 62 12 00 00    	jne    16be <main+0x159e>
     45c:	48 8b 85 90 72 fa ff 	mov    -0x58d70(%rbp),%rax
     463:	48 8d 78 e8          	lea    -0x18(%rax),%rdi
     467:	48 81 ff 00 00 00 00 	cmp    $0x0,%rdi
     46e:	0f 85 8e 12 00 00    	jne    1702 <main+0x15e2>
     474:	48 8d 95 e0 73 fa ff 	lea    -0x58c20(%rbp),%rdx
     47b:	48 8d bd 00 74 fa ff 	lea    -0x58c00(%rbp),%rdi
     482:	be 00 00 00 00       	mov    $0x0,%esi
     487:	c7 85 e0 73 fa ff 00 	movl   $0x0,-0x58c20(%rbp)
     48e:	00 00 00 
     491:	c7 85 e4 73 fa ff 00 	movl   $0x0,-0x58c1c(%rbp)
     498:	00 00 00 
     49b:	c7 85 e8 73 fa ff 00 	movl   $0x0,-0x58c18(%rbp)
     4a2:	00 00 00 
     4a5:	c7 85 ec 73 fa ff 00 	movl   $0x0,-0x58c14(%rbp)
     4ac:	00 00 00 
     4af:	e8 00 00 00 00       	callq  4b4 <main+0x394>
     4b4:	48 8d b5 00 74 fa ff 	lea    -0x58c00(%rbp),%rsi
     4bb:	48 8d bd 10 7d fa ff 	lea    -0x582f0(%rbp),%rdi
     4c2:	31 d2                	xor    %edx,%edx
     4c4:	e8 00 00 00 00       	callq  4c9 <main+0x3a9>
     4c9:	e8 00 00 00 00       	callq  4ce <main+0x3ae>
     4ce:	48 89 df             	mov    %rbx,%rdi
     4d1:	e8 00 00 00 00       	callq  4d6 <main+0x3b6>
     4d6:	48 89 df             	mov    %rbx,%rdi
     4d9:	e8 00 00 00 00       	callq  4de <main+0x3be>
     4de:	48 8d b5 70 72 fa ff 	lea    -0x58d90(%rbp),%rsi
     4e5:	48 8d bd b0 72 fa ff 	lea    -0x58d50(%rbp),%rdi
     4ec:	e8 00 00 00 00       	callq  4f1 <main+0x3d1>
     4f1:	48 8d bd b0 72 fa ff 	lea    -0x58d50(%rbp),%rdi
     4f8:	be 00 00 00 00       	mov    $0x0,%esi
     4fd:	e8 00 00 00 00       	callq  502 <main+0x3e2>
     502:	85 c0                	test   %eax,%eax
     504:	41 89 c1             	mov    %eax,%r9d
     507:	0f 85 63 0f 00 00    	jne    1470 <main+0x1350>
     50d:	48 8b 8d 70 72 fa ff 	mov    -0x58d90(%rbp),%rcx
     514:	48 8d bd 30 7e fa ff 	lea    -0x581d0(%rbp),%rdi
     51b:	49 89 d8             	mov    %rbx,%r8
     51e:	ba 2c 01 00 00       	mov    $0x12c,%edx
     523:	be be 00 00 00       	mov    $0xbe,%esi
     528:	e8 00 00 00 00       	callq  52d <main+0x40d>
     52d:	48 8b 85 b0 72 fa ff 	mov    -0x58d50(%rbp),%rax
     534:	48 8d 78 e8          	lea    -0x18(%rax),%rdi
     538:	48 81 ff 00 00 00 00 	cmp    $0x0,%rdi
     53f:	0f 85 8a 11 00 00    	jne    16cf <main+0x15af>
     545:	48 8d 95 d0 73 fa ff 	lea    -0x58c30(%rbp),%rdx
     54c:	48 8d bd c0 72 fa ff 	lea    -0x58d40(%rbp),%rdi
     553:	be 00 00 00 00       	mov    $0x0,%esi
     558:	e8 00 00 00 00       	callq  55d <main+0x43d>
     55d:	48 8d b5 c0 72 fa ff 	lea    -0x58d40(%rbp),%rsi
     564:	48 8d bd 20 74 fa ff 	lea    -0x58be0(%rbp),%rdi
     56b:	e8 00 00 00 00       	callq  570 <main+0x450>
     570:	48 8b 85 c0 72 fa ff 	mov    -0x58d40(%rbp),%rax
     577:	48 8d 78 e8          	lea    -0x18(%rax),%rdi
     57b:	48 81 ff 00 00 00 00 	cmp    $0x0,%rdi
     582:	0f 85 69 11 00 00    	jne    16f1 <main+0x15d1>
     588:	48 8d b5 20 74 fa ff 	lea    -0x58be0(%rbp),%rsi
     58f:	48 8d bd 90 74 fa ff 	lea    -0x58b70(%rbp),%rdi
     596:	e8 00 00 00 00       	callq  59b <main+0x47b>
     59b:	48 8d bd 90 74 fa ff 	lea    -0x58b70(%rbp),%rdi
     5a2:	be 28 00 00 00       	mov    $0x28,%esi
     5a7:	e8 00 00 00 00       	callq  5ac <main+0x48c>
     5ac:	48 8d b5 40 72 fa ff 	lea    -0x58dc0(%rbp),%rsi
     5b3:	48 8d bd 90 74 fa ff 	lea    -0x58b70(%rbp),%rdi
     5ba:	e8 00 00 00 00       	callq  5bf <main+0x49f>
     5bf:	48 8d bd e0 73 fa ff 	lea    -0x58c20(%rbp),%rdi
     5c6:	e8 00 00 00 00       	callq  5cb <main+0x4ab>
     5cb:	48 8d 95 e0 73 fa ff 	lea    -0x58c20(%rbp),%rdx
     5d2:	48 8d bd d0 72 fa ff 	lea    -0x58d30(%rbp),%rdi
     5d9:	be 00 00 00 00       	mov    $0x0,%esi
     5de:	e8 00 00 00 00       	callq  5e3 <main+0x4c3>
     5e3:	48 8d b5 d0 72 fa ff 	lea    -0x58d30(%rbp),%rsi
     5ea:	48 8d bd 90 74 fa ff 	lea    -0x58b70(%rbp),%rdi
     5f1:	e8 00 00 00 00       	callq  5f6 <main+0x4d6>
     5f6:	48 8b 85 d0 72 fa ff 	mov    -0x58d30(%rbp),%rax
     5fd:	48 8d 78 e8          	lea    -0x18(%rax),%rdi
     601:	e8 00 00 00 00       	callq  606 <main+0x4e6>
     606:	48 8d bd e0 73 fa ff 	lea    -0x58c20(%rbp),%rdi
     60d:	e8 00 00 00 00       	callq  612 <main+0x4f2>
     612:	48 8d 85 90 74 fa ff 	lea    -0x58b70(%rbp),%rax
     619:	66 0f ef c0          	pxor   %xmm0,%xmm0
     61d:	f3 0f 10 0d 00 00 00 	movss  0x0(%rip),%xmm1        # 625 <main+0x505>
     624:	00 
     625:	48 8d 78 08          	lea    0x8(%rax),%rdi
     629:	e8 00 00 00 00       	callq  62e <main+0x50e>
     62e:	48 8d b5 20 74 fa ff 	lea    -0x58be0(%rbp),%rsi
     635:	48 8d bd a0 75 fa ff 	lea    -0x58a60(%rbp),%rdi
     63c:	e8 00 00 00 00       	callq  641 <main+0x521>
     641:	48 8d bd a0 75 fa ff 	lea    -0x58a60(%rbp),%rdi
     648:	be 28 00 00 00       	mov    $0x28,%esi
     64d:	e8 00 00 00 00       	callq  652 <main+0x532>
     652:	48 8d b5 40 72 fa ff 	lea    -0x58dc0(%rbp),%rsi
     659:	48 8d bd a0 75 fa ff 	lea    -0x58a60(%rbp),%rdi
     660:	e8 00 00 00 00       	callq  665 <main+0x545>
     665:	48 8d 85 a0 75 fa ff 	lea    -0x58a60(%rbp),%rax
     66c:	f3 0f 10 0d 00 00 00 	movss  0x0(%rip),%xmm1        # 674 <main+0x554>
     673:	00 
     674:	f3 0f 10 05 00 00 00 	movss  0x0(%rip),%xmm0        # 67c <main+0x55c>
     67b:	00 
     67c:	48 8d 78 08          	lea    0x8(%rax),%rdi
     680:	e8 00 00 00 00       	callq  685 <main+0x565>
     685:	48 8d b5 20 74 fa ff 	lea    -0x58be0(%rbp),%rsi
     68c:	48 8d bd b0 76 fa ff 	lea    -0x58950(%rbp),%rdi
     693:	e8 00 00 00 00       	callq  698 <main+0x578>
     698:	48 8d bd b0 76 fa ff 	lea    -0x58950(%rbp),%rdi
     69f:	be 46 00 00 00       	mov    $0x46,%esi
     6a4:	e8 00 00 00 00       	callq  6a9 <main+0x589>
     6a9:	48 8d bd b0 76 fa ff 	lea    -0x58950(%rbp),%rdi
     6b0:	be 00 00 00 00       	mov    $0x0,%esi
     6b5:	e8 00 00 00 00       	callq  6ba <main+0x59a>
     6ba:	48 8d bd e0 73 fa ff 	lea    -0x58c20(%rbp),%rdi
     6c1:	e8 00 00 00 00       	callq  6c6 <main+0x5a6>
     6c6:	48 8d 95 e0 73 fa ff 	lea    -0x58c20(%rbp),%rdx
     6cd:	48 8d bd e0 72 fa ff 	lea    -0x58d20(%rbp),%rdi
     6d4:	be 00 00 00 00       	mov    $0x0,%esi
     6d9:	e8 00 00 00 00       	callq  6de <main+0x5be>
     6de:	48 8d b5 e0 72 fa ff 	lea    -0x58d20(%rbp),%rsi
     6e5:	48 8d bd b0 76 fa ff 	lea    -0x58950(%rbp),%rdi
     6ec:	e8 00 00 00 00       	callq  6f1 <main+0x5d1>
     6f1:	48 8b 85 e0 72 fa ff 	mov    -0x58d20(%rbp),%rax
     6f8:	48 8d 78 e8          	lea    -0x18(%rax),%rdi
     6fc:	e8 00 00 00 00       	callq  701 <main+0x5e1>
     701:	48 8d bd e0 73 fa ff 	lea    -0x58c20(%rbp),%rdi
     708:	e8 00 00 00 00       	callq  70d <main+0x5ed>
     70d:	48 8d 85 b0 76 fa ff 	lea    -0x58950(%rbp),%rax
     714:	f3 0f 10 0d 00 00 00 	movss  0x0(%rip),%xmm1        # 71c <main+0x5fc>
     71b:	00 
     71c:	f3 0f 10 05 00 00 00 	movss  0x0(%rip),%xmm0        # 724 <main+0x604>
     723:	00 
     724:	48 8d 78 08          	lea    0x8(%rax),%rdi
     728:	e8 00 00 00 00       	callq  72d <main+0x60d>
     72d:	48 8d b5 20 74 fa ff 	lea    -0x58be0(%rbp),%rsi
     734:	48 8d bd c0 77 fa ff 	lea    -0x58840(%rbp),%rdi
     73b:	e8 00 00 00 00       	callq  740 <main+0x620>
     740:	48 8d bd c0 77 fa ff 	lea    -0x58840(%rbp),%rdi
     747:	be 46 00 00 00       	mov    $0x46,%esi
     74c:	e8 00 00 00 00       	callq  751 <main+0x631>
     751:	48 8d bd c0 77 fa ff 	lea    -0x58840(%rbp),%rdi
     758:	be 00 00 00 00       	mov    $0x0,%esi
     75d:	e8 00 00 00 00       	callq  762 <main+0x642>
     762:	48 8d bd e0 73 fa ff 	lea    -0x58c20(%rbp),%rdi
     769:	e8 00 00 00 00       	callq  76e <main+0x64e>
     76e:	48 8d 95 e0 73 fa ff 	lea    -0x58c20(%rbp),%rdx
     775:	48 8d bd f0 72 fa ff 	lea    -0x58d10(%rbp),%rdi
     77c:	be 00 00 00 00       	mov    $0x0,%esi
     781:	e8 00 00 00 00       	callq  786 <main+0x666>
     786:	48 8d b5 f0 72 fa ff 	lea    -0x58d10(%rbp),%rsi
     78d:	48 8d bd c0 77 fa ff 	lea    -0x58840(%rbp),%rdi
     794:	e8 00 00 00 00       	callq  799 <main+0x679>
     799:	48 8b 85 f0 72 fa ff 	mov    -0x58d10(%rbp),%rax
     7a0:	48 8d 78 e8          	lea    -0x18(%rax),%rdi
     7a4:	e8 00 00 00 00       	callq  7a9 <main+0x689>
     7a9:	48 8d bd e0 73 fa ff 	lea    -0x58c20(%rbp),%rdi
     7b0:	e8 00 00 00 00       	callq  7b5 <main+0x695>
     7b5:	48 8d 85 c0 77 fa ff 	lea    -0x58840(%rbp),%rax
     7bc:	f3 0f 10 0d 00 00 00 	movss  0x0(%rip),%xmm1        # 7c4 <main+0x6a4>
     7c3:	00 
     7c4:	f3 0f 10 05 00 00 00 	movss  0x0(%rip),%xmm0        # 7cc <main+0x6ac>
     7cb:	00 
     7cc:	48 8d 78 08          	lea    0x8(%rax),%rdi
     7d0:	e8 00 00 00 00       	callq  7d5 <main+0x6b5>
     7d5:	48 8d b5 20 74 fa ff 	lea    -0x58be0(%rbp),%rsi
     7dc:	48 8d bd d0 78 fa ff 	lea    -0x58730(%rbp),%rdi
     7e3:	e8 00 00 00 00       	callq  7e8 <main+0x6c8>
     7e8:	48 8d bd d0 78 fa ff 	lea    -0x58730(%rbp),%rdi
     7ef:	be 28 00 00 00       	mov    $0x28,%esi
     7f4:	e8 00 00 00 00       	callq  7f9 <main+0x6d9>
     7f9:	48 8d bd d0 78 fa ff 	lea    -0x58730(%rbp),%rdi
     800:	be 00 00 00 00       	mov    $0x0,%esi
     805:	e8 00 00 00 00       	callq  80a <main+0x6ea>
     80a:	48 8d bd e0 73 fa ff 	lea    -0x58c20(%rbp),%rdi
     811:	e8 00 00 00 00       	callq  816 <main+0x6f6>
     816:	48 8d 95 e0 73 fa ff 	lea    -0x58c20(%rbp),%rdx
     81d:	48 8d bd 00 73 fa ff 	lea    -0x58d00(%rbp),%rdi
     824:	be 00 00 00 00       	mov    $0x0,%esi
     829:	e8 00 00 00 00       	callq  82e <main+0x70e>
     82e:	48 8d b5 00 73 fa ff 	lea    -0x58d00(%rbp),%rsi
     835:	48 8d bd d0 78 fa ff 	lea    -0x58730(%rbp),%rdi
     83c:	e8 00 00 00 00       	callq  841 <main+0x721>
     841:	48 8b 85 00 73 fa ff 	mov    -0x58d00(%rbp),%rax
     848:	48 8d 78 e8          	lea    -0x18(%rax),%rdi
     84c:	e8 00 00 00 00       	callq  851 <main+0x731>
     851:	48 8d bd e0 73 fa ff 	lea    -0x58c20(%rbp),%rdi
     858:	e8 00 00 00 00       	callq  85d <main+0x73d>
     85d:	48 8d 85 d0 78 fa ff 	lea    -0x58730(%rbp),%rax
     864:	f3 0f 10 0d 00 00 00 	movss  0x0(%rip),%xmm1        # 86c <main+0x74c>
     86b:	00 
     86c:	f3 0f 10 05 00 00 00 	movss  0x0(%rip),%xmm0        # 874 <main+0x754>
     873:	00 
     874:	48 8d 78 08          	lea    0x8(%rax),%rdi
     878:	e8 00 00 00 00       	callq  87d <main+0x75d>
     87d:	48 8d b5 20 74 fa ff 	lea    -0x58be0(%rbp),%rsi
     884:	48 8d bd e0 79 fa ff 	lea    -0x58620(%rbp),%rdi
     88b:	e8 00 00 00 00       	callq  890 <main+0x770>
     890:	48 8d bd e0 79 fa ff 	lea    -0x58620(%rbp),%rdi
     897:	be 28 00 00 00       	mov    $0x28,%esi
     89c:	e8 00 00 00 00       	callq  8a1 <main+0x781>
     8a1:	48 8d bd e0 79 fa ff 	lea    -0x58620(%rbp),%rdi
     8a8:	be 00 00 00 00       	mov    $0x0,%esi
     8ad:	e8 00 00 00 00       	callq  8b2 <main+0x792>
     8b2:	48 8d bd e0 73 fa ff 	lea    -0x58c20(%rbp),%rdi
     8b9:	e8 00 00 00 00       	callq  8be <main+0x79e>
     8be:	48 8d 95 e0 73 fa ff 	lea    -0x58c20(%rbp),%rdx
     8c5:	48 8d bd 10 73 fa ff 	lea    -0x58cf0(%rbp),%rdi
     8cc:	be 00 00 00 00       	mov    $0x0,%esi
     8d1:	e8 00 00 00 00       	callq  8d6 <main+0x7b6>
     8d6:	48 8d b5 10 73 fa ff 	lea    -0x58cf0(%rbp),%rsi
     8dd:	48 8d bd e0 79 fa ff 	lea    -0x58620(%rbp),%rdi
     8e4:	e8 00 00 00 00       	callq  8e9 <main+0x7c9>
     8e9:	48 8b 85 10 73 fa ff 	mov    -0x58cf0(%rbp),%rax
     8f0:	48 8d 78 e8          	lea    -0x18(%rax),%rdi
     8f4:	e8 00 00 00 00       	callq  8f9 <main+0x7d9>
     8f9:	48 8d bd e0 73 fa ff 	lea    -0x58c20(%rbp),%rdi
     900:	e8 00 00 00 00       	callq  905 <main+0x7e5>
     905:	48 8d 85 e0 79 fa ff 	lea    -0x58620(%rbp),%rax
     90c:	66 0f ef c0          	pxor   %xmm0,%xmm0
     910:	f3 0f 10 0d 00 00 00 	movss  0x0(%rip),%xmm1        # 918 <main+0x7f8>
     917:	00 
     918:	48 8d 78 08          	lea    0x8(%rax),%rdi
     91c:	e8 00 00 00 00       	callq  921 <main+0x801>
     921:	48 8d b5 20 74 fa ff 	lea    -0x58be0(%rbp),%rsi
     928:	48 8d bd f0 7a fa ff 	lea    -0x58510(%rbp),%rdi
     92f:	e8 00 00 00 00       	callq  934 <main+0x814>
     934:	48 8d bd f0 7a fa ff 	lea    -0x58510(%rbp),%rdi
     93b:	be 28 00 00 00       	mov    $0x28,%esi
     940:	e8 00 00 00 00       	callq  945 <main+0x825>
     945:	48 8d bd f0 7a fa ff 	lea    -0x58510(%rbp),%rdi
     94c:	be 00 00 00 00       	mov    $0x0,%esi
     951:	e8 00 00 00 00       	callq  956 <main+0x836>
     956:	48 8d bd e0 73 fa ff 	lea    -0x58c20(%rbp),%rdi
     95d:	e8 00 00 00 00       	callq  962 <main+0x842>
     962:	66 0f ef c0          	pxor   %xmm0,%xmm0
     966:	48 8d bd 20 73 fa ff 	lea    -0x58ce0(%rbp),%rdi
     96d:	f2 0f 2a 05 00 00 00 	cvtsi2sdl 0x0(%rip),%xmm0        # 975 <main+0x855>
     974:	00 
     975:	f2 0f 5e 05 00 00 00 	divsd  0x0(%rip),%xmm0        # 97d <main+0x85d>
     97c:	00 
     97d:	e8 00 00 00 00       	callq  982 <main+0x862>
     982:	48 8d 95 e0 73 fa ff 	lea    -0x58c20(%rbp),%rdx
     989:	48 8d b5 20 73 fa ff 	lea    -0x58ce0(%rbp),%rsi
     990:	48 8d bd 30 73 fa ff 	lea    -0x58cd0(%rbp),%rdi
     997:	e8 00 00 00 00       	callq  99c <main+0x87c>
     99c:	48 8d b5 30 73 fa ff 	lea    -0x58cd0(%rbp),%rsi
     9a3:	48 8d bd f0 7a fa ff 	lea    -0x58510(%rbp),%rdi
     9aa:	e8 00 00 00 00       	callq  9af <main+0x88f>
     9af:	48 8b 85 30 73 fa ff 	mov    -0x58cd0(%rbp),%rax
     9b6:	48 8d 78 e8          	lea    -0x18(%rax),%rdi
     9ba:	e8 00 00 00 00       	callq  9bf <main+0x89f>
     9bf:	48 8b 85 20 73 fa ff 	mov    -0x58ce0(%rbp),%rax
     9c6:	48 8d 78 e8          	lea    -0x18(%rax),%rdi
     9ca:	48 81 ff 00 00 00 00 	cmp    $0x0,%rdi
     9d1:	0f 85 09 0d 00 00    	jne    16e0 <main+0x15c0>
     9d7:	48 8d bd e0 73 fa ff 	lea    -0x58c20(%rbp),%rdi
     9de:	e8 00 00 00 00       	callq  9e3 <main+0x8c3>
     9e3:	48 8d 85 f0 7a fa ff 	lea    -0x58510(%rbp),%rax
     9ea:	f3 0f 10 0d 00 00 00 	movss  0x0(%rip),%xmm1        # 9f2 <main+0x8d2>
     9f1:	00 
     9f2:	f3 0f 10 05 00 00 00 	movss  0x0(%rip),%xmm0        # 9fa <main+0x8da>
     9f9:	00 
     9fa:	48 8d 78 08          	lea    0x8(%rax),%rdi
     9fe:	e8 00 00 00 00       	callq  a03 <main+0x8e3>
     a03:	48 8d b5 20 74 fa ff 	lea    -0x58be0(%rbp),%rsi
     a0a:	48 8d bd 00 7c fa ff 	lea    -0x58400(%rbp),%rdi
     a11:	e8 00 00 00 00       	callq  a16 <main+0x8f6>
     a16:	48 8d bd 00 7c fa ff 	lea    -0x58400(%rbp),%rdi
     a1d:	be 1e 00 00 00       	mov    $0x1e,%esi
     a22:	e8 00 00 00 00       	callq  a27 <main+0x907>
     a27:	48 8d bd 00 7c fa ff 	lea    -0x58400(%rbp),%rdi
     a2e:	be 00 00 00 00       	mov    $0x0,%esi
     a33:	e8 00 00 00 00       	callq  a38 <main+0x918>
     a38:	48 8d bd e0 73 fa ff 	lea    -0x58c20(%rbp),%rdi
     a3f:	e8 00 00 00 00       	callq  a44 <main+0x924>
     a44:	48 8d 95 e0 73 fa ff 	lea    -0x58c20(%rbp),%rdx
     a4b:	48 8d bd 40 73 fa ff 	lea    -0x58cc0(%rbp),%rdi
     a52:	be 00 00 00 00       	mov    $0x0,%esi
     a57:	e8 00 00 00 00       	callq  a5c <main+0x93c>
     a5c:	48 8d b5 40 73 fa ff 	lea    -0x58cc0(%rbp),%rsi
     a63:	48 8d bd 00 7c fa ff 	lea    -0x58400(%rbp),%rdi
     a6a:	e8 00 00 00 00       	callq  a6f <main+0x94f>
     a6f:	48 8b 85 40 73 fa ff 	mov    -0x58cc0(%rbp),%rax
     a76:	48 8d 78 e8          	lea    -0x18(%rax),%rdi
     a7a:	e8 00 00 00 00       	callq  a7f <main+0x95f>
     a7f:	48 8d bd e0 73 fa ff 	lea    -0x58c20(%rbp),%rdi
     a86:	e8 00 00 00 00       	callq  a8b <main+0x96b>
     a8b:	48 8d 85 00 7c fa ff 	lea    -0x58400(%rbp),%rax
     a92:	f3 0f 10 0d 00 00 00 	movss  0x0(%rip),%xmm1        # a9a <main+0x97a>
     a99:	00 
     a9a:	f3 0f 10 05 00 00 00 	movss  0x0(%rip),%xmm0        # aa2 <main+0x982>
     aa1:	00 
     aa2:	48 8d 78 08          	lea    0x8(%rax),%rdi
     aa6:	e8 00 00 00 00       	callq  aab <main+0x98b>
     aab:	e8 00 00 00 00       	callq  ab0 <main+0x990>
     ab0:	48 63 05 00 00 00 00 	movslq 0x0(%rip),%rax        # ab7 <main+0x997>
     ab7:	4c 8d 70 ff          	lea    -0x1(%rax),%r14
     abb:	48 69 c0 90 01 00 00 	imul   $0x190,%rax,%rax
     ac2:	4d 89 f5             	mov    %r14,%r13
     ac5:	48 89 85 18 72 fa ff 	mov    %rax,-0x58de8(%rbp)
     acc:	48 83 c0 10          	add    $0x10,%rax
     ad0:	48 29 c4             	sub    %rax,%rsp
     ad3:	49 83 fe ff          	cmp    $0xffffffffffffffff,%r14
     ad7:	49 89 e7             	mov    %rsp,%r15
     ada:	4c 8d 64 24 08       	lea    0x8(%rsp),%r12
     adf:	74 33                	je     b14 <main+0x9f4>
     ae1:	0f 1f 80 00 00 00 00 	nopl   0x0(%rax)
     ae8:	4c 89 e7             	mov    %r12,%rdi
     aeb:	e8 00 00 00 00       	callq  af0 <main+0x9d0>
     af0:	66 0f ef c0          	pxor   %xmm0,%xmm0
     af4:	49 8d 7c 24 30       	lea    0x30(%r12),%rdi
     af9:	be 1e 00 00 00       	mov    $0x1e,%esi
     afe:	e8 00 00 00 00       	callq  b03 <main+0x9e3>
     b03:	49 83 ed 01          	sub    $0x1,%r13
     b07:	49 81 c4 90 01 00 00 	add    $0x190,%r12
     b0e:	49 83 fd ff          	cmp    $0xffffffffffffffff,%r13
     b12:	75 d4                	jne    ae8 <main+0x9c8>
     b14:	4c 89 ff             	mov    %r15,%rdi
     b17:	e8 00 00 00 00       	callq  b1c <main+0x9fc>
     b1c:	45 31 f6             	xor    %r14d,%r14d
     b1f:	83 3d 00 00 00 00 00 	cmpl   $0x0,0x0(%rip)        # b26 <main+0xa06>
     b26:	4d 8d 67 38          	lea    0x38(%r15),%r12
     b2a:	7e 76                	jle    ba2 <main+0xa82>
     b2c:	0f 1f 40 00          	nopl   0x0(%rax)
     b30:	4d 63 ee             	movslq %r14d,%r13
     b33:	66 0f ef c0          	pxor   %xmm0,%xmm0
     b37:	4b 8d 44 ad 00       	lea    0x0(%r13,%r13,4),%rax
     b3c:	4c 89 e7             	mov    %r12,%rdi
     b3f:	48 8d 04 80          	lea    (%rax,%rax,4),%rax
     b43:	48 c1 e0 04          	shl    $0x4,%rax
     b47:	f3 41 0f 2a 44 07 28 	cvtsi2ssl 0x28(%r15,%rax,1),%xmm0
     b4e:	e8 00 00 00 00       	callq  b53 <main+0xa33>
     b53:	4b 8d 44 ad 00       	lea    0x0(%r13,%r13,4),%rax
     b58:	66 0f ef c0          	pxor   %xmm0,%xmm0
     b5c:	66 0f ef c9          	pxor   %xmm1,%xmm1
     b60:	49 8d 7c 24 08       	lea    0x8(%r12),%rdi
     b65:	48 8d 04 80          	lea    (%rax,%rax,4),%rax
     b69:	48 c1 e0 04          	shl    $0x4,%rax
     b6d:	49 8d 44 07 20       	lea    0x20(%r15,%rax,1),%rax
     b72:	f3 0f 2a 40 10       	cvtsi2ssl 0x10(%rax),%xmm0
     b77:	f3 0f 2a 48 0c       	cvtsi2ssl 0xc(%rax),%xmm1
     b7c:	e8 00 00 00 00       	callq  b81 <main+0xa61>
     b81:	be 00 00 00 00       	mov    $0x0,%esi
     b86:	4c 89 e7             	mov    %r12,%rdi
     b89:	e8 00 00 00 00       	callq  b8e <main+0xa6e>
     b8e:	41 83 c6 01          	add    $0x1,%r14d
     b92:	49 81 c4 90 01 00 00 	add    $0x190,%r12
     b99:	44 39 35 00 00 00 00 	cmp    %r14d,0x0(%rip)        # ba0 <main+0xa80>
     ba0:	7f 8e                	jg     b30 <main+0xa10>
     ba2:	48 8d bd 90 7f fa ff 	lea    -0x58070(%rbp),%rdi
     ba9:	e8 00 00 00 00       	callq  bae <main+0xa8e>
     bae:	84 c0                	test   %al,%al
     bb0:	0f 84 9c 0a 00 00    	je     1652 <main+0x1532>
     bb6:	48 8d bd 50 72 fa ff 	lea    -0x58db0(%rbp),%rdi
     bbd:	e8 00 00 00 00       	callq  bc2 <main+0xaa2>
     bc2:	48 8d bd e0 73 fa ff 	lea    -0x58c20(%rbp),%rdi
     bc9:	48 89 85 e0 73 fa ff 	mov    %rax,-0x58c20(%rbp)
     bd0:	e8 00 00 00 00       	callq  bd5 <main+0xab5>
     bd5:	48 8d 85 90 7f fa ff 	lea    -0x58070(%rbp),%rax
     bdc:	f3 0f 11 85 28 72 fa 	movss  %xmm0,-0x58dd8(%rbp)
     be3:	ff 
     be4:	4c 8d 68 30          	lea    0x30(%rax),%r13
     be8:	48 8d 85 30 7e fa ff 	lea    -0x581d0(%rbp),%rax
     bef:	4c 8d 60 40          	lea    0x40(%rax),%r12
     bf3:	0f 1f 44 00 00       	nopl   0x0(%rax,%rax,1)
     bf8:	48 8d b5 b0 73 fa ff 	lea    -0x58c50(%rbp),%rsi
     bff:	48 8d bd 90 7f fa ff 	lea    -0x58070(%rbp),%rdi
     c06:	e8 00 00 00 00       	callq  c0b <main+0xaeb>
     c0b:	84 c0                	test   %al,%al
     c0d:	0f 84 15 03 00 00    	je     f28 <main+0xe08>
     c13:	8b 85 b0 73 fa ff    	mov    -0x58c50(%rbp),%eax
     c19:	85 c0                	test   %eax,%eax
     c1b:	0f 84 ef 01 00 00    	je     e10 <main+0xcf0>
     c21:	83 f8 05             	cmp    $0x5,%eax
     c24:	75 d2                	jne    bf8 <main+0xad8>
     c26:	8b 95 b4 73 fa ff    	mov    -0x58c4c(%rbp),%edx
     c2c:	83 fa 39             	cmp    $0x39,%edx
     c2f:	0f 84 3b 02 00 00    	je     e70 <main+0xd50>
     c35:	83 fa 0f             	cmp    $0xf,%edx
     c38:	0f 84 f2 01 00 00    	je     e30 <main+0xd10>
     c3e:	8b 85 b0 73 fa ff    	mov    -0x58c50(%rbp),%eax
     c44:	c6 85 3d 72 fa ff 00 	movb   $0x0,-0x58dc3(%rbp)
     c4b:	83 f8 05             	cmp    $0x5,%eax
     c4e:	75 a8                	jne    bf8 <main+0xad8>
     c50:	80 3d 00 00 00 00 00 	cmpb   $0x0,0x0(%rip)        # c57 <main+0xb37>
     c57:	74 9f                	je     bf8 <main+0xad8>
     c59:	4c 8b a5 18 72 fa ff 	mov    -0x58de8(%rbp),%r12
     c60:	4d 01 fc             	add    %r15,%r12
     c63:	eb 30                	jmp    c95 <main+0xb75>
     c65:	0f 1f 00             	nopl   (%rax)
     c68:	49 81 ec 90 01 00 00 	sub    $0x190,%r12
     c6f:	49 c7 44 24 38 00 00 	movq   $0x0,0x38(%r12)
     c76:	00 00 
     c78:	49 c7 44 24 40 00 00 	movq   $0x0,0x40(%r12)
     c7f:	00 00 
     c81:	49 8d 7c 24 38       	lea    0x38(%r12),%rdi
     c86:	e8 00 00 00 00       	callq  c8b <main+0xb6b>
     c8b:	49 8d 7c 24 08       	lea    0x8(%r12),%rdi
     c90:	e8 00 00 00 00       	callq  c95 <main+0xb75>
     c95:	4d 39 fc             	cmp    %r15,%r12
     c98:	75 ce                	jne    c68 <main+0xb48>
     c9a:	48 8b a5 10 72 fa ff 	mov    -0x58df0(%rbp),%rsp
     ca1:	48 8d bd 90 7f fa ff 	lea    -0x58070(%rbp),%rdi
     ca8:	e8 00 00 00 00       	callq  cad <main+0xb8d>
     cad:	4c 8d ad 28 80 fa ff 	lea    -0x57fd8(%rbp),%r13
     cb4:	48 81 c3 e8 7c 05 00 	add    $0x57ce8,%rbx
     cbb:	0f 1f 44 00 00       	nopl   0x0(%rax,%rax,1)
     cc0:	48 c7 03 00 00 00 00 	movq   $0x0,(%rbx)
     cc7:	48 c7 43 08 00 00 00 	movq   $0x0,0x8(%rbx)
     cce:	00 
     ccf:	48 89 df             	mov    %rbx,%rdi
     cd2:	4c 8d a3 88 fe ff ff 	lea    -0x178(%rbx),%r12
     cd9:	e8 00 00 00 00       	callq  cde <main+0xbbe>
     cde:	48 8d bb a8 fe ff ff 	lea    -0x158(%rbx),%rdi
     ce5:	48 c7 83 a8 fe ff ff 	movq   $0x0,-0x158(%rbx)
     cec:	00 00 00 00 
     cf0:	48 c7 83 b0 fe ff ff 	movq   $0x0,-0x150(%rbx)
     cf7:	00 00 00 00 
     cfb:	e8 00 00 00 00       	callq  d00 <main+0xbe0>
     d00:	48 81 eb d0 02 00 00 	sub    $0x2d0,%rbx
     d07:	4c 39 eb             	cmp    %r13,%rbx
     d0a:	75 b4                	jne    cc0 <main+0xba0>
     d0c:	48 8b 85 70 72 fa ff 	mov    -0x58d90(%rbp),%rax
     d13:	48 8d 78 e8          	lea    -0x18(%rax),%rdi
     d17:	48 81 ff 00 00 00 00 	cmp    $0x0,%rdi
     d1e:	0f 85 a0 07 00 00    	jne    14c4 <main+0x13a4>
     d24:	48 8d bd 30 7e fa ff 	lea    -0x581d0(%rbp),%rdi
     d2b:	e8 00 00 00 00       	callq  d30 <main+0xc10>
     d30:	48 8d bd 00 7c fa ff 	lea    -0x58400(%rbp),%rdi
     d37:	e8 00 00 00 00       	callq  d3c <main+0xc1c>
     d3c:	48 8d bd f0 7a fa ff 	lea    -0x58510(%rbp),%rdi
     d43:	e8 00 00 00 00       	callq  d48 <main+0xc28>
     d48:	48 8d bd e0 79 fa ff 	lea    -0x58620(%rbp),%rdi
     d4f:	e8 00 00 00 00       	callq  d54 <main+0xc34>
     d54:	48 8d bd d0 78 fa ff 	lea    -0x58730(%rbp),%rdi
     d5b:	e8 00 00 00 00       	callq  d60 <main+0xc40>
     d60:	48 8d bd c0 77 fa ff 	lea    -0x58840(%rbp),%rdi
     d67:	e8 00 00 00 00       	callq  d6c <main+0xc4c>
     d6c:	48 8d bd b0 76 fa ff 	lea    -0x58950(%rbp),%rdi
     d73:	e8 00 00 00 00       	callq  d78 <main+0xc58>
     d78:	48 8d bd a0 75 fa ff 	lea    -0x58a60(%rbp),%rdi
     d7f:	e8 00 00 00 00       	callq  d84 <main+0xc64>
     d84:	48 8d bd 90 74 fa ff 	lea    -0x58b70(%rbp),%rdi
     d8b:	e8 00 00 00 00       	callq  d90 <main+0xc70>
     d90:	48 8d bd 20 74 fa ff 	lea    -0x58be0(%rbp),%rdi
     d97:	e8 00 00 00 00       	callq  d9c <main+0xc7c>
     d9c:	48 8b 85 60 72 fa ff 	mov    -0x58da0(%rbp),%rax
     da3:	48 8d 78 e8          	lea    -0x18(%rax),%rdi
     da7:	48 81 ff 00 00 00 00 	cmp    $0x0,%rdi
     dae:	0f 85 ff 06 00 00    	jne    14b3 <main+0x1393>
     db4:	48 8d 85 10 7d fa ff 	lea    -0x582f0(%rbp),%rax
     dbb:	48 c7 85 10 7d fa ff 	movq   $0x0,-0x582f0(%rbp)
     dc2:	00 00 00 00 
     dc6:	48 c7 85 18 7d fa ff 	movq   $0x0,-0x582e8(%rbp)
     dcd:	00 00 00 00 
     dd1:	48 8d 78 08          	lea    0x8(%rax),%rdi
     dd5:	e8 00 00 00 00       	callq  dda <main+0xcba>
     dda:	48 8d bd 00 74 fa ff 	lea    -0x58c00(%rbp),%rdi
     de1:	e8 00 00 00 00       	callq  de6 <main+0xcc6>
     de6:	31 c0                	xor    %eax,%eax
     de8:	48 8b 4d c8          	mov    -0x38(%rbp),%rcx
     dec:	64 48 33 0c 25 28 00 	xor    %fs:0x28,%rcx
     df3:	00 00 
     df5:	0f 85 35 0d 00 00    	jne    1b30 <main+0x1a10>
     dfb:	48 8d 65 d8          	lea    -0x28(%rbp),%rsp
     dff:	5b                   	pop    %rbx
     e00:	41 5c                	pop    %r12
     e02:	41 5d                	pop    %r13
     e04:	41 5e                	pop    %r14
     e06:	41 5f                	pop    %r15
     e08:	5d                   	pop    %rbp
     e09:	c3                   	retq   
     e0a:	66 0f 1f 44 00 00    	nopw   0x0(%rax,%rax,1)
     e10:	48 8d bd 90 7f fa ff 	lea    -0x58070(%rbp),%rdi
     e17:	e8 00 00 00 00       	callq  e1c <main+0xcfc>
     e1c:	8b 85 b0 73 fa ff    	mov    -0x58c50(%rbp),%eax
     e22:	e9 fa fd ff ff       	jmpq   c21 <main+0xb01>
     e27:	66 0f 1f 84 00 00 00 	nopw   0x0(%rax,%rax,1)
     e2e:	00 00 
     e30:	80 bd 3d 72 fa ff 00 	cmpb   $0x0,-0x58dc3(%rbp)
     e37:	0f 85 01 fe ff ff    	jne    c3e <main+0xb1e>
     e3d:	80 3d 00 00 00 00 00 	cmpb   $0x0,0x0(%rip)        # e44 <main+0xd24>
     e44:	0f 85 f4 fd ff ff    	jne    c3e <main+0xb1e>
     e4a:	48 8d b5 00 7c fa ff 	lea    -0x58400(%rbp),%rsi
     e51:	ba 00 00 00 00       	mov    $0x0,%edx
     e56:	4c 89 ef             	mov    %r13,%rdi
     e59:	e8 00 00 00 00       	callq  e5e <main+0xd3e>
     e5e:	c6 85 3d 72 fa ff 01 	movb   $0x1,-0x58dc3(%rbp)
     e65:	8b 85 b0 73 fa ff    	mov    -0x58c50(%rbp),%eax
     e6b:	e9 db fd ff ff       	jmpq   c4b <main+0xb2b>
     e70:	80 3d 00 00 00 00 00 	cmpb   $0x0,0x0(%rip)        # e77 <main+0xd57>
     e77:	0f 85 c7 fd ff ff    	jne    c44 <main+0xb24>
     e7d:	8b 85 60 7e fa ff    	mov    -0x581a0(%rbp),%eax
     e83:	83 f8 01             	cmp    $0x1,%eax
     e86:	0f 86 83 05 00 00    	jbe    140f <main+0x12ef>
     e8c:	83 f8 02             	cmp    $0x2,%eax
     e8f:	75 3f                	jne    ed0 <main+0xdb0>
     e91:	f3 0f 10 05 00 00 00 	movss  0x0(%rip),%xmm0        # e99 <main+0xd79>
     e98:	00 
     e99:	f3 0f 58 85 30 7e fa 	addss  -0x581d0(%rbp),%xmm0
     ea0:	ff 
     ea1:	f3 0f 10 0d 00 00 00 	movss  0x0(%rip),%xmm1        # ea9 <main+0xd89>
     ea8:	00 
     ea9:	0f 2e c8             	ucomiss %xmm0,%xmm1
     eac:	f3 0f 11 85 30 7e fa 	movss  %xmm0,-0x581d0(%rbp)
     eb3:	ff 
     eb4:	0f 87 98 05 00 00    	ja     1452 <main+0x1332>
     eba:	0f 2e c1             	ucomiss %xmm1,%xmm0
     ebd:	76 11                	jbe    ed0 <main+0xdb0>
     ebf:	f3 0f 5c 05 00 00 00 	subss  0x0(%rip),%xmm0        # ec7 <main+0xda7>
     ec6:	00 
     ec7:	f3 0f 11 85 30 7e fa 	movss  %xmm0,-0x581d0(%rbp)
     ece:	ff 
     ecf:	90                   	nop
     ed0:	66 0f ef c9          	pxor   %xmm1,%xmm1
     ed4:	f3 0f 10 85 28 72 fa 	movss  -0x58dd8(%rbp),%xmm0
     edb:	ff 
     edc:	f3 0f 59 85 30 7e fa 	mulss  -0x581d0(%rbp),%xmm0
     ee3:	ff 
     ee4:	4c 89 e7             	mov    %r12,%rdi
     ee7:	f3 0f 2a 8d 38 7e fa 	cvtsi2ssl -0x581c8(%rbp),%xmm1
     eee:	ff 
     eef:	f3 0f 58 c1          	addss  %xmm1,%xmm0
     ef3:	66 0f ef c9          	pxor   %xmm1,%xmm1
     ef7:	f3 0f 2c c0          	cvttss2si %xmm0,%eax
     efb:	66 0f ef c0          	pxor   %xmm0,%xmm0
     eff:	f3 0f 2a 85 34 7e fa 	cvtsi2ssl -0x581cc(%rbp),%xmm0
     f06:	ff 
     f07:	f3 0f 2a c8          	cvtsi2ss %eax,%xmm1
     f0b:	89 85 38 7e fa ff    	mov    %eax,-0x581c8(%rbp)
     f11:	e8 00 00 00 00       	callq  f16 <main+0xdf6>
     f16:	8b 95 b4 73 fa ff    	mov    -0x58c4c(%rbp),%edx
     f1c:	e9 14 fd ff ff       	jmpq   c35 <main+0xb15>
     f21:	0f 1f 80 00 00 00 00 	nopl   0x0(%rax)
     f28:	80 3d 00 00 00 00 00 	cmpb   $0x0,0x0(%rip)        # f2f <main+0xe0f>
     f2f:	0f 84 f8 00 00 00    	je     102d <main+0xf0d>
     f35:	8b b5 24 72 fa ff    	mov    -0x58ddc(%rbp),%esi
     f3b:	48 8d bd 50 73 fa ff 	lea    -0x58cb0(%rbp),%rdi
     f42:	e8 00 00 00 00       	callq  f47 <main+0xe27>
     f47:	4c 8d a5 60 72 fa ff 	lea    -0x58da0(%rbp),%r12
     f4e:	48 8d b5 50 73 fa ff 	lea    -0x58cb0(%rbp),%rsi
     f55:	4c 89 e7             	mov    %r12,%rdi
     f58:	e8 00 00 00 00       	callq  f5d <main+0xe3d>
     f5d:	48 8b 85 50 73 fa ff 	mov    -0x58cb0(%rbp),%rax
     f64:	48 8d 78 e8          	lea    -0x18(%rax),%rdi
     f68:	48 81 ff 00 00 00 00 	cmp    $0x0,%rdi
     f6f:	0f 85 60 05 00 00    	jne    14d5 <main+0x13b5>
     f75:	48 8d bd e0 73 fa ff 	lea    -0x58c20(%rbp),%rdi
     f7c:	e8 00 00 00 00       	callq  f81 <main+0xe61>
     f81:	48 8d 95 e0 73 fa ff 	lea    -0x58c20(%rbp),%rdx
     f88:	48 8d bd 60 73 fa ff 	lea    -0x58ca0(%rbp),%rdi
     f8f:	4c 89 e6             	mov    %r12,%rsi
     f92:	e8 00 00 00 00       	callq  f97 <main+0xe77>
     f97:	48 8d b5 60 73 fa ff 	lea    -0x58ca0(%rbp),%rsi
     f9e:	48 8d bd a0 75 fa ff 	lea    -0x58a60(%rbp),%rdi
     fa5:	e8 00 00 00 00       	callq  faa <main+0xe8a>
     faa:	48 8b 85 60 73 fa ff 	mov    -0x58ca0(%rbp),%rax
     fb1:	48 8d 78 e8          	lea    -0x18(%rax),%rdi
     fb5:	e8 00 00 00 00       	callq  fba <main+0xe9a>
     fba:	48 8d bd e0 73 fa ff 	lea    -0x58c20(%rbp),%rdi
     fc1:	e8 00 00 00 00       	callq  fc6 <main+0xea6>
     fc6:	48 8d 85 90 7f fa ff 	lea    -0x58070(%rbp),%rax
     fcd:	48 8d b5 c0 77 fa ff 	lea    -0x58840(%rbp),%rsi
     fd4:	ba 00 00 00 00       	mov    $0x0,%edx
     fd9:	48 8d 78 30          	lea    0x30(%rax),%rdi
     fdd:	e8 00 00 00 00       	callq  fe2 <main+0xec2>
     fe2:	48 8d 85 90 7f fa ff 	lea    -0x58070(%rbp),%rax
     fe9:	48 8d b5 90 74 fa ff 	lea    -0x58b70(%rbp),%rsi
     ff0:	ba 00 00 00 00       	mov    $0x0,%edx
     ff5:	48 8d 78 30          	lea    0x30(%rax),%rdi
     ff9:	e8 00 00 00 00       	callq  ffe <main+0xede>
     ffe:	48 8d 85 90 7f fa ff 	lea    -0x58070(%rbp),%rax
    1005:	48 8d b5 a0 75 fa ff 	lea    -0x58a60(%rbp),%rsi
    100c:	ba 00 00 00 00       	mov    $0x0,%edx
    1011:	48 8d 78 30          	lea    0x30(%rax),%rdi
    1015:	e8 00 00 00 00       	callq  101a <main+0xefa>
    101a:	48 8d bd 90 7f fa ff 	lea    -0x58070(%rbp),%rdi
    1021:	e8 00 00 00 00       	callq  1026 <main+0xf06>
    1026:	c6 85 3d 72 fa ff 01 	movb   $0x1,-0x58dc3(%rbp)
    102d:	8b 3d 00 00 00 00    	mov    0x0(%rip),%edi        # 1033 <main+0xf13>
    1033:	48 8d b5 3d 72 fa ff 	lea    -0x58dc3(%rbp),%rsi
    103a:	e8 00 00 00 00       	callq  103f <main+0xf1f>
    103f:	83 f8 01             	cmp    $0x1,%eax
    1042:	0f 84 9e 04 00 00    	je     14e6 <main+0x13c6>
    1048:	80 bd 3d 72 fa ff 00 	cmpb   $0x0,-0x58dc3(%rbp)
    104f:	0f 85 4d fb ff ff    	jne    ba2 <main+0xa82>
    1055:	8b 85 60 7e fa ff    	mov    -0x581a0(%rbp),%eax
    105b:	83 f8 01             	cmp    $0x1,%eax
    105e:	0f 86 af 06 00 00    	jbe    1713 <main+0x15f3>
    1064:	83 f8 02             	cmp    $0x2,%eax
    1067:	75 2e                	jne    1097 <main+0xf77>
    1069:	f3 0f 10 85 30 7e fa 	movss  -0x581d0(%rbp),%xmm0
    1070:	ff 
    1071:	f3 0f 10 0d 00 00 00 	movss  0x0(%rip),%xmm1        # 1079 <main+0xf59>
    1078:	00 
    1079:	0f 2e c8             	ucomiss %xmm0,%xmm1
    107c:	0f 87 01 07 00 00    	ja     1783 <main+0x1663>
    1082:	0f 2e c1             	ucomiss %xmm1,%xmm0
    1085:	76 10                	jbe    1097 <main+0xf77>
    1087:	f3 0f 5c 05 00 00 00 	subss  0x0(%rip),%xmm0        # 108f <main+0xf6f>
    108e:	00 
    108f:	f3 0f 11 85 30 7e fa 	movss  %xmm0,-0x581d0(%rbp)
    1096:	ff 
    1097:	66 0f ef c9          	pxor   %xmm1,%xmm1
    109b:	f3 0f 10 85 28 72 fa 	movss  -0x58dd8(%rbp),%xmm0
    10a2:	ff 
    10a3:	f3 0f 59 85 30 7e fa 	mulss  -0x581d0(%rbp),%xmm0
    10aa:	ff 
    10ab:	48 8d 8d 30 7e fa ff 	lea    -0x581d0(%rbp),%rcx
    10b2:	f3 0f 2a 8d 38 7e fa 	cvtsi2ssl -0x581c8(%rbp),%xmm1
    10b9:	ff 
    10ba:	48 8d 79 40          	lea    0x40(%rcx),%rdi
    10be:	f3 0f 58 c1          	addss  %xmm1,%xmm0
    10c2:	66 0f ef c9          	pxor   %xmm1,%xmm1
    10c6:	f3 0f 2c c0          	cvttss2si %xmm0,%eax
    10ca:	66 0f ef c0          	pxor   %xmm0,%xmm0
    10ce:	f3 0f 2a 85 34 7e fa 	cvtsi2ssl -0x581cc(%rbp),%xmm0
    10d5:	ff 
    10d6:	f3 0f 2a c8          	cvtsi2ss %eax,%xmm1
    10da:	89 85 38 7e fa ff    	mov    %eax,-0x581c8(%rbp)
    10e0:	e8 00 00 00 00       	callq  10e5 <main+0xfc5>
    10e5:	48 8d 85 90 7f fa ff 	lea    -0x58070(%rbp),%rax
    10ec:	be 00 00 00 00       	mov    $0x0,%esi
    10f1:	48 8d 78 30          	lea    0x30(%rax),%rdi
    10f5:	e8 00 00 00 00       	callq  10fa <main+0xfda>
    10fa:	48 8d bd 30 7e fa ff 	lea    -0x581d0(%rbp),%rdi
    1101:	48 89 de             	mov    %rbx,%rsi
    1104:	e8 00 00 00 00       	callq  1109 <main+0xfe9>
    1109:	0f b6 85 0f 72 fa ff 	movzbl -0x58df1(%rbp),%eax
    1110:	4d 8d 67 38          	lea    0x38(%r15),%r12
    1114:	45 31 ed             	xor    %r13d,%r13d
    1117:	88 85 28 72 fa ff    	mov    %al,-0x58dd8(%rbp)
    111d:	48 8d 85 30 7e fa ff 	lea    -0x581d0(%rbp),%rax
    1124:	4c 8d 70 38          	lea    0x38(%rax),%r14
    1128:	e9 9c 00 00 00       	jmpq   11c9 <main+0x10a9>
    112d:	4c 89 e7             	mov    %r12,%rdi
    1130:	e8 00 00 00 00       	callq  1135 <main+0x1015>
    1135:	4c 89 f7             	mov    %r14,%rdi
    1138:	66 0f d6 85 e0 73 fa 	movq   %xmm0,-0x58c20(%rbp)
    113f:	ff 
    1140:	66 0f d6 8d e8 73 fa 	movq   %xmm1,-0x58c18(%rbp)
    1147:	ff 
    1148:	e8 00 00 00 00       	callq  114d <main+0x102d>
    114d:	48 8d 95 c0 73 fa ff 	lea    -0x58c40(%rbp),%rdx
    1154:	48 8d b5 e0 73 fa ff 	lea    -0x58c20(%rbp),%rsi
    115b:	48 8d bd d0 73 fa ff 	lea    -0x58c30(%rbp),%rdi
    1162:	66 0f d6 85 d0 73 fa 	movq   %xmm0,-0x58c30(%rbp)
    1169:	ff 
    116a:	c7 85 c0 73 fa ff 00 	movl   $0x0,-0x58c40(%rbp)
    1171:	00 00 00 
    1174:	c7 85 c4 73 fa ff 00 	movl   $0x0,-0x58c3c(%rbp)
    117b:	00 00 00 
    117e:	66 0f d6 8d d8 73 fa 	movq   %xmm1,-0x58c28(%rbp)
    1185:	ff 
    1186:	c7 85 c8 73 fa ff 00 	movl   $0x0,-0x58c38(%rbp)
    118d:	00 00 00 
    1190:	c7 85 cc 73 fa ff 00 	movl   $0x0,-0x58c34(%rbp)
    1197:	00 00 00 
    119a:	e8 00 00 00 00       	callq  119f <main+0x107f>
    119f:	84 c0                	test   %al,%al
    11a1:	74 1b                	je     11be <main+0x109e>
    11a3:	0f b6 8d 28 72 fa ff 	movzbl -0x58dd8(%rbp),%ecx
    11aa:	41 83 7c 24 c8 00    	cmpl   $0x0,-0x38(%r12)
    11b0:	b8 01 00 00 00       	mov    $0x1,%eax
    11b5:	0f 44 c8             	cmove  %eax,%ecx
    11b8:	88 8d 28 72 fa ff    	mov    %cl,-0x58dd8(%rbp)
    11be:	41 83 c5 01          	add    $0x1,%r13d
    11c2:	49 81 c4 90 01 00 00 	add    $0x190,%r12
    11c9:	44 3b 2d 00 00 00 00 	cmp    0x0(%rip),%r13d        # 11d0 <main+0x10b0>
    11d0:	0f 8c 57 ff ff ff    	jl     112d <main+0x100d>
    11d6:	0f b6 85 28 72 fa ff 	movzbl -0x58dd8(%rbp),%eax
    11dd:	48 8d b5 10 7d fa ff 	lea    -0x582f0(%rbp),%rsi
    11e4:	ba 00 00 00 00       	mov    $0x0,%edx
    11e9:	88 85 0f 72 fa ff    	mov    %al,-0x58df1(%rbp)
    11ef:	48 8d 85 90 7f fa ff 	lea    -0x58070(%rbp),%rax
    11f6:	48 8d 78 30          	lea    0x30(%rax),%rdi
    11fa:	e8 00 00 00 00       	callq  11ff <main+0x10df>
    11ff:	45 31 e4             	xor    %r12d,%r12d
    1202:	83 3d 00 00 00 00 00 	cmpl   $0x0,0x0(%rip)        # 1209 <main+0x10e9>
    1209:	48 8d 85 90 7f fa ff 	lea    -0x58070(%rbp),%rax
    1210:	4d 8d 6f 40          	lea    0x40(%r15),%r13
    1214:	4c 8d 70 30          	lea    0x30(%rax),%r14
    1218:	7e 64                	jle    127e <main+0x115e>
    121a:	66 0f 1f 44 00 00    	nopw   0x0(%rax,%rax,1)
    1220:	49 63 c4             	movslq %r12d,%rax
    1223:	66 0f ef c0          	pxor   %xmm0,%xmm0
    1227:	48 8d 04 80          	lea    (%rax,%rax,4),%rax
    122b:	66 0f ef c9          	pxor   %xmm1,%xmm1
    122f:	4c 89 ef             	mov    %r13,%rdi
    1232:	48 8d 04 80          	lea    (%rax,%rax,4),%rax
    1236:	48 c1 e0 04          	shl    $0x4,%rax
    123a:	49 8d 54 07 20       	lea    0x20(%r15,%rax,1),%rdx
    123f:	8b 42 10             	mov    0x10(%rdx),%eax
    1242:	2b 05 00 00 00 00    	sub    0x0(%rip),%eax        # 1248 <main+0x1128>
    1248:	f3 0f 2a 4a 0c       	cvtsi2ssl 0xc(%rdx),%xmm1
    124d:	f3 0f 2a c0          	cvtsi2ss %eax,%xmm0
    1251:	89 42 10             	mov    %eax,0x10(%rdx)
    1254:	e8 00 00 00 00       	callq  1259 <main+0x1139>
    1259:	49 8d 75 f8          	lea    -0x8(%r13),%rsi
    125d:	ba 00 00 00 00       	mov    $0x0,%edx
    1262:	4c 89 f7             	mov    %r14,%rdi
    1265:	e8 00 00 00 00       	callq  126a <main+0x114a>
    126a:	41 83 c4 01          	add    $0x1,%r12d
    126e:	49 81 c5 90 01 00 00 	add    $0x190,%r13
    1275:	44 39 25 00 00 00 00 	cmp    %r12d,0x0(%rip)        # 127c <main+0x115c>
    127c:	7f a2                	jg     1220 <main+0x1100>
    127e:	80 3d 00 00 00 00 00 	cmpb   $0x0,0x0(%rip)        # 1285 <main+0x1165>
    1285:	75 08                	jne    128f <main+0x116f>
    1287:	48 89 df             	mov    %rbx,%rdi
    128a:	e8 00 00 00 00       	callq  128f <main+0x116f>
    128f:	48 8d 85 90 7f fa ff 	lea    -0x58070(%rbp),%rax
    1296:	4c 8d a3 78 01 00 00 	lea    0x178(%rbx),%r12
    129d:	45 31 ed             	xor    %r13d,%r13d
    12a0:	4c 8d 70 30          	lea    0x30(%rax),%r14
    12a4:	eb 30                	jmp    12d6 <main+0x11b6>
    12a6:	49 8d b4 24 a8 fe ff 	lea    -0x158(%r12),%rsi
    12ad:	ff 
    12ae:	ba 00 00 00 00       	mov    $0x0,%edx
    12b3:	4c 89 f7             	mov    %r14,%rdi
    12b6:	e8 00 00 00 00       	callq  12bb <main+0x119b>
    12bb:	ba 00 00 00 00       	mov    $0x0,%edx
    12c0:	4c 89 e6             	mov    %r12,%rsi
    12c3:	4c 89 f7             	mov    %r14,%rdi
    12c6:	e8 00 00 00 00       	callq  12cb <main+0x11ab>
    12cb:	41 83 c5 01          	add    $0x1,%r13d
    12cf:	49 81 c4 d0 02 00 00 	add    $0x2d0,%r12
    12d6:	44 3b 2d 00 00 00 00 	cmp    0x0(%rip),%r13d        # 12dd <main+0x11bd>
    12dd:	7c c7                	jl     12a6 <main+0x1186>
    12df:	48 8d 85 30 7e fa ff 	lea    -0x581d0(%rbp),%rax
    12e6:	ba 00 00 00 00       	mov    $0x0,%edx
    12eb:	48 8d 70 38          	lea    0x38(%rax),%rsi
    12ef:	48 8d 85 90 7f fa ff 	lea    -0x58070(%rbp),%rax
    12f6:	48 8d 78 30          	lea    0x30(%rax),%rdi
    12fa:	e8 00 00 00 00       	callq  12ff <main+0x11df>
    12ff:	80 bd 28 72 fa ff 00 	cmpb   $0x0,-0x58dd8(%rbp)
    1306:	74 0d                	je     1315 <main+0x11f5>
    1308:	83 bd 20 72 fa ff 1d 	cmpl   $0x1d,-0x58de0(%rbp)
    130f:	0f 8e 28 04 00 00    	jle    173d <main+0x161d>
    1315:	83 bd 20 72 fa ff 1e 	cmpl   $0x1e,-0x58de0(%rbp)
    131c:	8b 0d 00 00 00 00    	mov    0x0(%rip),%ecx        # 1322 <main+0x1202>
    1322:	0f 84 68 04 00 00    	je     1790 <main+0x1670>
    1328:	01 8d 24 72 fa ff    	add    %ecx,-0x58ddc(%rbp)
    132e:	c6 85 0f 72 fa ff 00 	movb   $0x0,-0x58df1(%rbp)
    1335:	8b b5 24 72 fa ff    	mov    -0x58ddc(%rbp),%esi
    133b:	48 8d bd 90 73 fa ff 	lea    -0x58c70(%rbp),%rdi
    1342:	e8 00 00 00 00       	callq  1347 <main+0x1227>
    1347:	4c 8d a5 60 72 fa ff 	lea    -0x58da0(%rbp),%r12
    134e:	48 8d b5 90 73 fa ff 	lea    -0x58c70(%rbp),%rsi
    1355:	4c 89 e7             	mov    %r12,%rdi
    1358:	e8 00 00 00 00       	callq  135d <main+0x123d>
    135d:	48 8b 85 90 73 fa ff 	mov    -0x58c70(%rbp),%rax
    1364:	48 8d 78 e8          	lea    -0x18(%rax),%rdi
    1368:	48 81 ff 00 00 00 00 	cmp    $0x0,%rdi
    136f:	0f 85 a5 07 00 00    	jne    1b1a <main+0x19fa>
    1375:	48 8d bd e0 73 fa ff 	lea    -0x58c20(%rbp),%rdi
    137c:	e8 00 00 00 00       	callq  1381 <main+0x1261>
    1381:	48 8d 95 e0 73 fa ff 	lea    -0x58c20(%rbp),%rdx
    1388:	48 8d bd a0 73 fa ff 	lea    -0x58c60(%rbp),%rdi
    138f:	4c 89 e6             	mov    %r12,%rsi
    1392:	e8 00 00 00 00       	callq  1397 <main+0x1277>
    1397:	48 8d b5 a0 73 fa ff 	lea    -0x58c60(%rbp),%rsi
    139e:	48 8d bd a0 75 fa ff 	lea    -0x58a60(%rbp),%rdi
    13a5:	e8 00 00 00 00       	callq  13aa <main+0x128a>
    13aa:	48 8b 85 a0 73 fa ff 	mov    -0x58c60(%rbp),%rax
    13b1:	48 8d 78 e8          	lea    -0x18(%rax),%rdi
    13b5:	e8 00 00 00 00       	callq  13ba <main+0x129a>
    13ba:	48 8d bd e0 73 fa ff 	lea    -0x58c20(%rbp),%rdi
    13c1:	e8 00 00 00 00       	callq  13c6 <main+0x12a6>
    13c6:	48 8d 85 90 7f fa ff 	lea    -0x58070(%rbp),%rax
    13cd:	48 8d b5 90 74 fa ff 	lea    -0x58b70(%rbp),%rsi
    13d4:	ba 00 00 00 00       	mov    $0x0,%edx
    13d9:	48 8d 78 30          	lea    0x30(%rax),%rdi
    13dd:	e8 00 00 00 00       	callq  13e2 <main+0x12c2>
    13e2:	48 8d 85 90 7f fa ff 	lea    -0x58070(%rbp),%rax
    13e9:	48 8d b5 a0 75 fa ff 	lea    -0x58a60(%rbp),%rsi
    13f0:	ba 00 00 00 00       	mov    $0x0,%edx
    13f5:	48 8d 78 30          	lea    0x30(%rax),%rdi
    13f9:	e8 00 00 00 00       	callq  13fe <main+0x12de>
    13fe:	48 8d bd 90 7f fa ff 	lea    -0x58070(%rbp),%rdi
    1405:	e8 00 00 00 00       	callq  140a <main+0x12ea>
    140a:	e9 93 f7 ff ff       	jmpq   ba2 <main+0xa82>
    140f:	f3 0f 10 85 30 7e fa 	movss  -0x581d0(%rbp),%xmm0
    1416:	ff 
    1417:	f3 0f 5c 05 00 00 00 	subss  0x0(%rip),%xmm0        # 141f <main+0x12ff>
    141e:	00 
    141f:	f3 0f 10 0d 00 00 00 	movss  0x0(%rip),%xmm1        # 1427 <main+0x1307>
    1426:	00 
    1427:	0f 2e c8             	ucomiss %xmm0,%xmm1
    142a:	f3 0f 11 85 30 7e fa 	movss  %xmm0,-0x581d0(%rbp)
    1431:	ff 
    1432:	76 15                	jbe    1449 <main+0x1329>
    1434:	f3 0f 58 05 00 00 00 	addss  0x0(%rip),%xmm0        # 143c <main+0x131c>
    143b:	00 
    143c:	f3 0f 11 85 30 7e fa 	movss  %xmm0,-0x581d0(%rbp)
    1443:	ff 
    1444:	e9 87 fa ff ff       	jmpq   ed0 <main+0xdb0>
    1449:	0f 2e c1             	ucomiss %xmm1,%xmm0
    144c:	0f 86 7e fa ff ff    	jbe    ed0 <main+0xdb0>
    1452:	f3 0f 11 8d 30 7e fa 	movss  %xmm1,-0x581d0(%rbp)
    1459:	ff 
    145a:	e9 71 fa ff ff       	jmpq   ed0 <main+0xdb0>
    145f:	8b 05 00 00 00 00    	mov    0x0(%rip),%eax        # 1465 <main+0x1345>
    1465:	89 85 40 72 fa ff    	mov    %eax,-0x58dc0(%rbp)
    146b:	e9 95 ef ff ff       	jmpq   405 <main+0x2e5>
    1470:	48 8d bd b0 72 fa ff 	lea    -0x58d50(%rbp),%rdi
    1477:	be 00 00 00 00       	mov    $0x0,%esi
    147c:	e8 00 00 00 00       	callq  1481 <main+0x1361>
    1481:	85 c0                	test   %eax,%eax
    1483:	41 b9 01 00 00 00    	mov    $0x1,%r9d
    1489:	0f 84 7e f0 ff ff    	je     50d <main+0x3ed>
    148f:	48 8d bd b0 72 fa ff 	lea    -0x58d50(%rbp),%rdi
    1496:	be 00 00 00 00       	mov    $0x0,%esi
    149b:	e8 00 00 00 00       	callq  14a0 <main+0x1380>
    14a0:	83 f8 01             	cmp    $0x1,%eax
    14a3:	45 19 c9             	sbb    %r9d,%r9d
    14a6:	41 83 e1 03          	and    $0x3,%r9d
    14aa:	41 83 e9 01          	sub    $0x1,%r9d
    14ae:	e9 5a f0 ff ff       	jmpq   50d <main+0x3ed>
    14b3:	48 8d b5 e0 73 fa ff 	lea    -0x58c20(%rbp),%rsi
    14ba:	e8 00 00 00 00       	callq  14bf <main+0x139f>
    14bf:	e9 f0 f8 ff ff       	jmpq   db4 <main+0xc94>
    14c4:	48 8d b5 e0 73 fa ff 	lea    -0x58c20(%rbp),%rsi
    14cb:	e8 00 00 00 00       	callq  14d0 <main+0x13b0>
    14d0:	e9 4f f8 ff ff       	jmpq   d24 <main+0xc04>
    14d5:	48 8d b5 e0 73 fa ff 	lea    -0x58c20(%rbp),%rsi
    14dc:	e8 00 00 00 00       	callq  14e1 <main+0x13c1>
    14e1:	e9 8f fa ff ff       	jmpq   f75 <main+0xe55>
    14e6:	8b 8d 24 72 fa ff    	mov    -0x58ddc(%rbp),%ecx
    14ec:	83 bd 60 7e fa ff 02 	cmpl   $0x2,-0x581a0(%rbp)
    14f3:	48 8d bd 70 73 fa ff 	lea    -0x58c90(%rbp),%rdi
    14fa:	8d 04 8d ec ff ff ff 	lea    -0x14(,%rcx,4),%eax
    1501:	89 c2                	mov    %eax,%edx
    1503:	8b 05 00 00 00 00    	mov    0x0(%rip),%eax        # 1509 <main+0x13e9>
    1509:	0f 45 d1             	cmovne %ecx,%edx
    150c:	b9 0a 00 00 00       	mov    $0xa,%ecx
    1511:	89 d6                	mov    %edx,%esi
    1513:	99                   	cltd   
    1514:	f7 f9                	idiv   %ecx
    1516:	0f af c6             	imul   %esi,%eax
    1519:	89 c6                	mov    %eax,%esi
    151b:	89 85 24 72 fa ff    	mov    %eax,-0x58ddc(%rbp)
    1521:	e8 00 00 00 00       	callq  1526 <main+0x1406>
    1526:	4c 8d a5 60 72 fa ff 	lea    -0x58da0(%rbp),%r12
    152d:	48 8d b5 70 73 fa ff 	lea    -0x58c90(%rbp),%rsi
    1534:	4c 89 e7             	mov    %r12,%rdi
    1537:	e8 00 00 00 00       	callq  153c <main+0x141c>
    153c:	48 8b 85 70 73 fa ff 	mov    -0x58c90(%rbp),%rax
    1543:	48 8d 78 e8          	lea    -0x18(%rax),%rdi
    1547:	48 81 ff 00 00 00 00 	cmp    $0x0,%rdi
    154e:	0f 85 15 04 00 00    	jne    1969 <main+0x1849>
    1554:	48 8d bd e0 73 fa ff 	lea    -0x58c20(%rbp),%rdi
    155b:	e8 00 00 00 00       	callq  1560 <main+0x1440>
    1560:	48 8d 95 e0 73 fa ff 	lea    -0x58c20(%rbp),%rdx
    1567:	48 8d bd 80 73 fa ff 	lea    -0x58c80(%rbp),%rdi
    156e:	4c 89 e6             	mov    %r12,%rsi
    1571:	e8 00 00 00 00       	callq  1576 <main+0x1456>
    1576:	48 8d b5 80 73 fa ff 	lea    -0x58c80(%rbp),%rsi
    157d:	48 8d bd a0 75 fa ff 	lea    -0x58a60(%rbp),%rdi
    1584:	e8 00 00 00 00       	callq  1589 <main+0x1469>
    1589:	48 8b 85 80 73 fa ff 	mov    -0x58c80(%rbp),%rax
    1590:	48 8d 78 e8          	lea    -0x18(%rax),%rdi
    1594:	e8 00 00 00 00       	callq  1599 <main+0x1479>
    1599:	48 8d bd e0 73 fa ff 	lea    -0x58c20(%rbp),%rdi
    15a0:	e8 00 00 00 00       	callq  15a5 <main+0x1485>
    15a5:	48 8d 85 90 7f fa ff 	lea    -0x58070(%rbp),%rax
    15ac:	be 00 00 00 00       	mov    $0x0,%esi
    15b1:	48 8d 78 30          	lea    0x30(%rax),%rdi
    15b5:	e8 00 00 00 00       	callq  15ba <main+0x149a>
    15ba:	48 8d 85 90 7f fa ff 	lea    -0x58070(%rbp),%rax
    15c1:	48 8d b5 b0 76 fa ff 	lea    -0x58950(%rbp),%rsi
    15c8:	ba 00 00 00 00       	mov    $0x0,%edx
    15cd:	48 8d 78 30          	lea    0x30(%rax),%rdi
    15d1:	e8 00 00 00 00       	callq  15d6 <main+0x14b6>
    15d6:	48 8d 85 90 7f fa ff 	lea    -0x58070(%rbp),%rax
    15dd:	48 8d b5 e0 79 fa ff 	lea    -0x58620(%rbp),%rsi
    15e4:	ba 00 00 00 00       	mov    $0x0,%edx
    15e9:	48 8d 78 30          	lea    0x30(%rax),%rdi
    15ed:	e8 00 00 00 00       	callq  15f2 <main+0x14d2>
    15f2:	48 8d 85 90 7f fa ff 	lea    -0x58070(%rbp),%rax
    15f9:	48 8d b5 f0 7a fa ff 	lea    -0x58510(%rbp),%rsi
    1600:	ba 00 00 00 00       	mov    $0x0,%edx
    1605:	48 8d 78 30          	lea    0x30(%rax),%rdi
    1609:	e8 00 00 00 00       	callq  160e <main+0x14ee>
    160e:	48 8d 85 90 7f fa ff 	lea    -0x58070(%rbp),%rax
    1615:	48 8d b5 90 74 fa ff 	lea    -0x58b70(%rbp),%rsi
    161c:	ba 00 00 00 00       	mov    $0x0,%edx
    1621:	48 8d 78 30          	lea    0x30(%rax),%rdi
    1625:	e8 00 00 00 00       	callq  162a <main+0x150a>
    162a:	48 8d 85 90 7f fa ff 	lea    -0x58070(%rbp),%rax
    1631:	48 8d b5 a0 75 fa ff 	lea    -0x58a60(%rbp),%rsi
    1638:	ba 00 00 00 00       	mov    $0x0,%edx
    163d:	48 8d 78 30          	lea    0x30(%rax),%rdi
    1641:	e8 00 00 00 00       	callq  1646 <main+0x1526>
    1646:	48 8d bd 90 7f fa ff 	lea    -0x58070(%rbp),%rdi
    164d:	e8 00 00 00 00       	callq  1652 <main+0x1532>
    1652:	83 3d 00 00 00 00 03 	cmpl   $0x3,0x0(%rip)        # 1659 <main+0x1539>
    1659:	0f 8f fa f5 ff ff    	jg     c59 <main+0xb39>
    165f:	4c 8b a5 18 72 fa ff 	mov    -0x58de8(%rbp),%r12
    1666:	c7 05 00 00 00 00 00 	movl   $0x0,0x0(%rip)        # 1670 <main+0x1550>
    166d:	00 00 00 
    1670:	c7 05 00 00 00 00 00 	movl   $0x0,0x0(%rip)        # 167a <main+0x155a>
    1677:	00 00 00 
    167a:	4d 01 fc             	add    %r15,%r12
    167d:	eb 2e                	jmp    16ad <main+0x158d>
    167f:	90                   	nop
    1680:	49 81 ec 90 01 00 00 	sub    $0x190,%r12
    1687:	49 c7 44 24 38 00 00 	movq   $0x0,0x38(%r12)
    168e:	00 00 
    1690:	49 c7 44 24 40 00 00 	movq   $0x0,0x40(%r12)
    1697:	00 00 
    1699:	49 8d 7c 24 38       	lea    0x38(%r12),%rdi
    169e:	e8 00 00 00 00       	callq  16a3 <main+0x1583>
    16a3:	49 8d 7c 24 08       	lea    0x8(%r12),%rdi
    16a8:	e8 00 00 00 00       	callq  16ad <main+0x158d>
    16ad:	4d 39 e7             	cmp    %r12,%r15
    16b0:	75 ce                	jne    1680 <main+0x1560>
    16b2:	48 8b a5 10 72 fa ff 	mov    -0x58df0(%rbp),%rsp
    16b9:	e9 29 ed ff ff       	jmpq   3e7 <main+0x2c7>
    16be:	48 8d b5 e0 73 fa ff 	lea    -0x58c20(%rbp),%rsi
    16c5:	e8 00 00 00 00       	callq  16ca <main+0x15aa>
    16ca:	e9 8d ed ff ff       	jmpq   45c <main+0x33c>
    16cf:	48 8d b5 e0 73 fa ff 	lea    -0x58c20(%rbp),%rsi
    16d6:	e8 00 00 00 00       	callq  16db <main+0x15bb>
    16db:	e9 65 ee ff ff       	jmpq   545 <main+0x425>
    16e0:	48 8d b5 d0 73 fa ff 	lea    -0x58c30(%rbp),%rsi
    16e7:	e8 00 00 00 00       	callq  16ec <main+0x15cc>
    16ec:	e9 e6 f2 ff ff       	jmpq   9d7 <main+0x8b7>
    16f1:	48 8d b5 e0 73 fa ff 	lea    -0x58c20(%rbp),%rsi
    16f8:	e8 00 00 00 00       	callq  16fd <main+0x15dd>
    16fd:	e9 86 ee ff ff       	jmpq   588 <main+0x468>
    1702:	48 8d b5 e0 73 fa ff 	lea    -0x58c20(%rbp),%rsi
    1709:	e8 00 00 00 00       	callq  170e <main+0x15ee>
    170e:	e9 61 ed ff ff       	jmpq   474 <main+0x354>
    1713:	f3 0f 10 85 30 7e fa 	movss  -0x581d0(%rbp),%xmm0
    171a:	ff 
    171b:	f3 0f 10 0d 00 00 00 	movss  0x0(%rip),%xmm1        # 1723 <main+0x1603>
    1722:	00 
    1723:	0f 2e c8             	ucomiss %xmm0,%xmm1
    1726:	76 52                	jbe    177a <main+0x165a>
    1728:	f3 0f 58 05 00 00 00 	addss  0x0(%rip),%xmm0        # 1730 <main+0x1610>
    172f:	00 
    1730:	f3 0f 11 85 30 7e fa 	movss  %xmm0,-0x581d0(%rbp)
    1737:	ff 
    1738:	e9 5a f9 ff ff       	jmpq   1097 <main+0xf77>
    173d:	8b 8d 24 72 fa ff    	mov    -0x58ddc(%rbp),%ecx
    1743:	8b 05 00 00 00 00    	mov    0x0(%rip),%eax        # 1749 <main+0x1629>
    1749:	48 8d b5 d0 78 fa ff 	lea    -0x58730(%rbp),%rsi
    1750:	ba 00 00 00 00       	mov    $0x0,%edx
    1755:	83 85 20 72 fa ff 01 	addl   $0x1,-0x58de0(%rbp)
    175c:	8d 04 41             	lea    (%rcx,%rax,2),%eax
    175f:	89 85 24 72 fa ff    	mov    %eax,-0x58ddc(%rbp)
    1765:	48 8d 85 90 7f fa ff 	lea    -0x58070(%rbp),%rax
    176c:	48 8d 78 30          	lea    0x30(%rax),%rdi
    1770:	e8 00 00 00 00       	callq  1775 <main+0x1655>
    1775:	e9 bb fb ff ff       	jmpq   1335 <main+0x1215>
    177a:	0f 2e c1             	ucomiss %xmm1,%xmm0
    177d:	0f 86 14 f9 ff ff    	jbe    1097 <main+0xf77>
    1783:	f3 0f 11 8d 30 7e fa 	movss  %xmm1,-0x581d0(%rbp)
    178a:	ff 
    178b:	e9 07 f9 ff ff       	jmpq   1097 <main+0xf77>
    1790:	01 8d 24 72 fa ff    	add    %ecx,-0x58ddc(%rbp)
    1796:	c6 85 0f 72 fa ff 00 	movb   $0x0,-0x58df1(%rbp)
    179d:	c7 85 20 72 fa ff 00 	movl   $0x0,-0x58de0(%rbp)
    17a4:	00 00 00 
    17a7:	e9 89 fb ff ff       	jmpq   1335 <main+0x1215>
    17ac:	49 89 c4             	mov    %rax,%r12
    17af:	48 8d bd 90 7f fa ff 	lea    -0x58070(%rbp),%rdi
    17b6:	e8 00 00 00 00       	callq  17bb <main+0x169b>
    17bb:	4c 8d ab 40 7e 05 00 	lea    0x57e40(%rbx),%r13
    17c2:	49 81 ed d0 02 00 00 	sub    $0x2d0,%r13
    17c9:	49 8d 7d 20          	lea    0x20(%r13),%rdi
    17cd:	e8 00 00 00 00       	callq  17d2 <main+0x16b2>
    17d2:	49 39 dd             	cmp    %rbx,%r13
    17d5:	75 eb                	jne    17c2 <main+0x16a2>
    17d7:	4c 89 e3             	mov    %r12,%rbx
    17da:	48 8b 85 70 72 fa ff 	mov    -0x58d90(%rbp),%rax
    17e1:	48 8d 78 e8          	lea    -0x18(%rax),%rdi
    17e5:	48 81 ff 00 00 00 00 	cmp    $0x0,%rdi
    17ec:	74 0c                	je     17fa <main+0x16da>
    17ee:	48 8d b5 3f 72 fa ff 	lea    -0x58dc1(%rbp),%rsi
    17f5:	e8 00 00 00 00       	callq  17fa <main+0x16da>
    17fa:	48 8d bd 30 7e fa ff 	lea    -0x581d0(%rbp),%rdi
    1801:	e8 00 00 00 00       	callq  1806 <main+0x16e6>
    1806:	48 8d bd 00 7c fa ff 	lea    -0x58400(%rbp),%rdi
    180d:	e8 00 00 00 00       	callq  1812 <main+0x16f2>
    1812:	48 8d bd f0 7a fa ff 	lea    -0x58510(%rbp),%rdi
    1819:	e8 00 00 00 00       	callq  181e <main+0x16fe>
    181e:	48 8d bd e0 79 fa ff 	lea    -0x58620(%rbp),%rdi
    1825:	e8 00 00 00 00       	callq  182a <main+0x170a>
    182a:	48 8d bd d0 78 fa ff 	lea    -0x58730(%rbp),%rdi
    1831:	e8 00 00 00 00       	callq  1836 <main+0x1716>
    1836:	48 8d bd c0 77 fa ff 	lea    -0x58840(%rbp),%rdi
    183d:	e8 00 00 00 00       	callq  1842 <main+0x1722>
    1842:	48 8d bd b0 76 fa ff 	lea    -0x58950(%rbp),%rdi
    1849:	e8 00 00 00 00       	callq  184e <main+0x172e>
    184e:	48 8d bd a0 75 fa ff 	lea    -0x58a60(%rbp),%rdi
    1855:	e8 00 00 00 00       	callq  185a <main+0x173a>
    185a:	48 8d bd 90 74 fa ff 	lea    -0x58b70(%rbp),%rdi
    1861:	e8 00 00 00 00       	callq  1866 <main+0x1746>
    1866:	48 8d bd 20 74 fa ff 	lea    -0x58be0(%rbp),%rdi
    186d:	e8 00 00 00 00       	callq  1872 <main+0x1752>
    1872:	48 8b 85 60 72 fa ff 	mov    -0x58da0(%rbp),%rax
    1879:	48 8d 78 e8          	lea    -0x18(%rax),%rdi
    187d:	48 81 ff 00 00 00 00 	cmp    $0x0,%rdi
    1884:	74 0c                	je     1892 <main+0x1772>
    1886:	48 8d b5 3f 72 fa ff 	lea    -0x58dc1(%rbp),%rsi
    188d:	e8 00 00 00 00       	callq  1892 <main+0x1772>
    1892:	48 8d 85 10 7d fa ff 	lea    -0x582f0(%rbp),%rax
    1899:	48 c7 85 10 7d fa ff 	movq   $0x0,-0x582f0(%rbp)
    18a0:	00 00 00 00 
    18a4:	48 c7 85 18 7d fa ff 	movq   $0x0,-0x582e8(%rbp)
    18ab:	00 00 00 00 
    18af:	48 8d 78 08          	lea    0x8(%rax),%rdi
    18b3:	e8 00 00 00 00       	callq  18b8 <main+0x1798>
    18b8:	48 8d bd 00 74 fa ff 	lea    -0x58c00(%rbp),%rdi
    18bf:	e8 00 00 00 00       	callq  18c4 <main+0x17a4>
    18c4:	48 89 df             	mov    %rbx,%rdi
    18c7:	e8 00 00 00 00       	callq  18cc <main+0x17ac>
    18cc:	49 89 c4             	mov    %rax,%r12
    18cf:	48 8b 85 80 72 fa ff 	mov    -0x58d80(%rbp),%rax
    18d6:	48 8d 78 e8          	lea    -0x18(%rax),%rdi
    18da:	e8 00 00 00 00       	callq  18df <main+0x17bf>
    18df:	48 8d bd c0 73 fa ff 	lea    -0x58c40(%rbp),%rdi
    18e6:	e8 00 00 00 00       	callq  18eb <main+0x17cb>
    18eb:	e9 cb fe ff ff       	jmpq   17bb <main+0x169b>
    18f0:	49 89 c4             	mov    %rax,%r12
    18f3:	48 8b 85 80 73 fa ff 	mov    -0x58c80(%rbp),%rax
    18fa:	48 8d 78 e8          	lea    -0x18(%rax),%rdi
    18fe:	e8 00 00 00 00       	callq  1903 <main+0x17e3>
    1903:	48 8d bd e0 73 fa ff 	lea    -0x58c20(%rbp),%rdi
    190a:	e8 00 00 00 00       	callq  190f <main+0x17ef>
    190f:	4c 8b ad 18 72 fa ff 	mov    -0x58de8(%rbp),%r13
    1916:	4d 01 fd             	add    %r15,%r13
    1919:	4d 39 fd             	cmp    %r15,%r13
    191c:	74 39                	je     1957 <main+0x1837>
    191e:	49 81 ed 90 01 00 00 	sub    $0x190,%r13
    1925:	4c 89 ef             	mov    %r13,%rdi
    1928:	e8 00 00 00 00       	callq  192d <main+0x180d>
    192d:	eb ea                	jmp    1919 <main+0x17f9>
    192f:	49 89 c4             	mov    %rax,%r12
    1932:	eb cf                	jmp    1903 <main+0x17e3>
    1934:	49 89 c4             	mov    %rax,%r12
    1937:	48 8b 85 90 72 fa ff 	mov    -0x58d70(%rbp),%rax
    193e:	48 8d 78 e8          	lea    -0x18(%rax),%rdi
    1942:	48 81 ff 00 00 00 00 	cmp    $0x0,%rdi
    1949:	74 0c                	je     1957 <main+0x1837>
    194b:	48 8d b5 e0 73 fa ff 	lea    -0x58c20(%rbp),%rsi
    1952:	e8 00 00 00 00       	callq  1957 <main+0x1837>
    1957:	4c 89 e0             	mov    %r12,%rax
    195a:	49 89 c4             	mov    %rax,%r12
    195d:	48 8b a5 10 72 fa ff 	mov    -0x58df0(%rbp),%rsp
    1964:	e9 46 fe ff ff       	jmpq   17af <main+0x168f>
    1969:	48 8d b5 e0 73 fa ff 	lea    -0x58c20(%rbp),%rsi
    1970:	e8 00 00 00 00       	callq  1975 <main+0x1855>
    1975:	e9 da fb ff ff       	jmpq   1554 <main+0x1434>
    197a:	49 89 c4             	mov    %rax,%r12
    197d:	48 8b 85 70 73 fa ff 	mov    -0x58c90(%rbp),%rax
    1984:	48 8d 78 e8          	lea    -0x18(%rax),%rdi
    1988:	48 81 ff 00 00 00 00 	cmp    $0x0,%rdi
    198f:	0f 84 7a ff ff ff    	je     190f <main+0x17ef>
    1995:	48 8d b5 e0 73 fa ff 	lea    -0x58c20(%rbp),%rsi
    199c:	e8 00 00 00 00       	callq  19a1 <main+0x1881>
    19a1:	e9 69 ff ff ff       	jmpq   190f <main+0x17ef>
    19a6:	49 89 c4             	mov    %rax,%r12
    19a9:	48 8d bd e0 73 fa ff 	lea    -0x58c20(%rbp),%rdi
    19b0:	e8 00 00 00 00       	callq  19b5 <main+0x1895>
    19b5:	4c 89 e0             	mov    %r12,%rax
    19b8:	eb a0                	jmp    195a <main+0x183a>
    19ba:	49 89 c4             	mov    %rax,%r12
    19bd:	e9 f9 fd ff ff       	jmpq   17bb <main+0x169b>
    19c2:	49 8d 7c 24 08       	lea    0x8(%r12),%rdi
    19c7:	49 89 c5             	mov    %rax,%r13
    19ca:	e8 00 00 00 00       	callq  19cf <main+0x18af>
    19cf:	4c 89 e8             	mov    %r13,%rax
    19d2:	eb 86                	jmp    195a <main+0x183a>
    19d4:	49 89 c4             	mov    %rax,%r12
    19d7:	48 8b 85 20 73 fa ff 	mov    -0x58ce0(%rbp),%rax
    19de:	48 8d 78 e8          	lea    -0x18(%rax),%rdi
    19e2:	48 81 ff 00 00 00 00 	cmp    $0x0,%rdi
    19e9:	74 be                	je     19a9 <main+0x1889>
    19eb:	48 8d b5 d0 73 fa ff 	lea    -0x58c30(%rbp),%rsi
    19f2:	e8 00 00 00 00       	callq  19f7 <main+0x18d7>
    19f7:	eb b0                	jmp    19a9 <main+0x1889>
    19f9:	49 89 c4             	mov    %rax,%r12
    19fc:	e9 de fe ff ff       	jmpq   18df <main+0x17bf>
    1a01:	48 89 c3             	mov    %rax,%rbx
    1a04:	e9 21 fe ff ff       	jmpq   182a <main+0x170a>
    1a09:	48 89 c3             	mov    %rax,%rbx
    1a0c:	e9 25 fe ff ff       	jmpq   1836 <main+0x1716>
    1a11:	48 89 c3             	mov    %rax,%rbx
    1a14:	e9 29 fe ff ff       	jmpq   1842 <main+0x1722>
    1a19:	48 89 c3             	mov    %rax,%rbx
    1a1c:	e9 2d fe ff ff       	jmpq   184e <main+0x172e>
    1a21:	48 89 c3             	mov    %rax,%rbx
    1a24:	e9 31 fe ff ff       	jmpq   185a <main+0x173a>
    1a29:	48 89 c3             	mov    %rax,%rbx
    1a2c:	e9 35 fe ff ff       	jmpq   1866 <main+0x1746>
    1a31:	48 89 c3             	mov    %rax,%rbx
    1a34:	e9 39 fe ff ff       	jmpq   1872 <main+0x1752>
    1a39:	48 89 c3             	mov    %rax,%rbx
    1a3c:	e9 77 fe ff ff       	jmpq   18b8 <main+0x1798>
    1a41:	49 89 c4             	mov    %rax,%r12
    1a44:	48 8b 85 30 73 fa ff 	mov    -0x58cd0(%rbp),%rax
    1a4b:	48 8d 78 e8          	lea    -0x18(%rax),%rdi
    1a4f:	e8 00 00 00 00       	callq  1a54 <main+0x1934>
    1a54:	eb 81                	jmp    19d7 <main+0x18b7>
    1a56:	49 89 c4             	mov    %rax,%r12
    1a59:	e9 b1 fe ff ff       	jmpq   190f <main+0x17ef>
    1a5e:	49 89 c4             	mov    %rax,%r12
    1a61:	48 8b 85 a0 72 fa ff 	mov    -0x58d60(%rbp),%rax
    1a68:	48 8d 78 e8          	lea    -0x18(%rax),%rdi
    1a6c:	48 81 ff 00 00 00 00 	cmp    $0x0,%rdi
    1a73:	0f 84 be fe ff ff    	je     1937 <main+0x1817>
    1a79:	48 8d b5 e0 73 fa ff 	lea    -0x58c20(%rbp),%rsi
    1a80:	e8 00 00 00 00       	callq  1a85 <main+0x1965>
    1a85:	e9 ad fe ff ff       	jmpq   1937 <main+0x1817>
    1a8a:	4c 89 e7             	mov    %r12,%rdi
    1a8d:	48 89 85 28 72 fa ff 	mov    %rax,-0x58dd8(%rbp)
    1a94:	e8 00 00 00 00       	callq  1a99 <main+0x1979>
    1a99:	48 8b 85 28 72 fa ff 	mov    -0x58dd8(%rbp),%rax
    1aa0:	49 89 c4             	mov    %rax,%r12
    1aa3:	4d 85 ff             	test   %r15,%r15
    1aa6:	0f 84 ab fe ff ff    	je     1957 <main+0x1837>
    1aac:	4d 29 ee             	sub    %r13,%r14
    1aaf:	4d 69 ee 90 01 00 00 	imul   $0x190,%r14,%r13
    1ab6:	4d 01 fd             	add    %r15,%r13
    1ab9:	4d 39 ef             	cmp    %r13,%r15
    1abc:	0f 84 95 fe ff ff    	je     1957 <main+0x1837>
    1ac2:	49 81 ed 90 01 00 00 	sub    $0x190,%r13
    1ac9:	4c 89 ef             	mov    %r13,%rdi
    1acc:	e8 00 00 00 00       	callq  1ad1 <main+0x19b1>
    1ad1:	eb e6                	jmp    1ab9 <main+0x1999>
    1ad3:	49 89 c4             	mov    %rax,%r12
    1ad6:	eb cb                	jmp    1aa3 <main+0x1983>
    1ad8:	49 89 c4             	mov    %rax,%r12
    1adb:	48 8b 85 40 73 fa ff 	mov    -0x58cc0(%rbp),%rax
    1ae2:	48 8d 78 e8          	lea    -0x18(%rax),%rdi
    1ae6:	e8 00 00 00 00       	callq  1aeb <main+0x19cb>
    1aeb:	e9 b9 fe ff ff       	jmpq   19a9 <main+0x1889>
    1af0:	e9 65 fe ff ff       	jmpq   195a <main+0x183a>
    1af5:	49 89 c4             	mov    %rax,%r12
    1af8:	48 8b 85 90 73 fa ff 	mov    -0x58c70(%rbp),%rax
    1aff:	48 8d 78 e8          	lea    -0x18(%rax),%rdi
    1b03:	48 81 ff 00 00 00 00 	cmp    $0x0,%rdi
    1b0a:	0f 84 ff fd ff ff    	je     190f <main+0x17ef>
    1b10:	e9 80 fe ff ff       	jmpq   1995 <main+0x1875>
    1b15:	e9 15 fe ff ff       	jmpq   192f <main+0x180f>
    1b1a:	48 8d b5 e0 73 fa ff 	lea    -0x58c20(%rbp),%rsi
    1b21:	e8 00 00 00 00       	callq  1b26 <main+0x1a06>
    1b26:	e9 4a f8 ff ff       	jmpq   1375 <main+0x1255>
    1b2b:	e9 76 fe ff ff       	jmpq   19a6 <main+0x1886>
    1b30:	e8 00 00 00 00       	callq  1b35 <main+0x1a15>
    1b35:	49 8d 7c 24 08       	lea    0x8(%r12),%rdi
    1b3a:	49 89 c5             	mov    %rax,%r13
    1b3d:	e8 00 00 00 00       	callq  1b42 <main+0x1a22>
    1b42:	4c 89 e8             	mov    %r13,%rax
    1b45:	e9 10 fe ff ff       	jmpq   195a <main+0x183a>
    1b4a:	49 89 c4             	mov    %rax,%r12
    1b4d:	48 8b 85 a0 73 fa ff 	mov    -0x58c60(%rbp),%rax
    1b54:	48 8d 78 e8          	lea    -0x18(%rax),%rdi
    1b58:	e8 00 00 00 00       	callq  1b5d <main+0x1a3d>
    1b5d:	e9 a1 fd ff ff       	jmpq   1903 <main+0x17e3>
    1b62:	e9 3f fe ff ff       	jmpq   19a6 <main+0x1886>
    1b67:	49 89 c4             	mov    %rax,%r12
    1b6a:	48 8b 85 10 73 fa ff 	mov    -0x58cf0(%rbp),%rax
    1b71:	48 8d 78 e8          	lea    -0x18(%rax),%rdi
    1b75:	e8 00 00 00 00       	callq  1b7a <main+0x1a5a>
    1b7a:	e9 2a fe ff ff       	jmpq   19a9 <main+0x1889>
    1b7f:	e9 22 fe ff ff       	jmpq   19a6 <main+0x1886>
    1b84:	49 89 c4             	mov    %rax,%r12
    1b87:	48 8b 85 00 73 fa ff 	mov    -0x58d00(%rbp),%rax
    1b8e:	48 8d 78 e8          	lea    -0x18(%rax),%rdi
    1b92:	e8 00 00 00 00       	callq  1b97 <main+0x1a77>
    1b97:	e9 0d fe ff ff       	jmpq   19a9 <main+0x1889>
    1b9c:	e9 05 fe ff ff       	jmpq   19a6 <main+0x1886>
    1ba1:	49 89 c4             	mov    %rax,%r12
    1ba4:	48 8b 85 f0 72 fa ff 	mov    -0x58d10(%rbp),%rax
    1bab:	48 8d 78 e8          	lea    -0x18(%rax),%rdi
    1baf:	e8 00 00 00 00       	callq  1bb4 <main+0x1a94>
    1bb4:	e9 f0 fd ff ff       	jmpq   19a9 <main+0x1889>
    1bb9:	e9 e8 fd ff ff       	jmpq   19a6 <main+0x1886>
    1bbe:	49 89 c4             	mov    %rax,%r12
    1bc1:	48 8b 85 e0 72 fa ff 	mov    -0x58d20(%rbp),%rax
    1bc8:	48 8d 78 e8          	lea    -0x18(%rax),%rdi
    1bcc:	e8 00 00 00 00       	callq  1bd1 <main+0x1ab1>
    1bd1:	e9 d3 fd ff ff       	jmpq   19a9 <main+0x1889>
    1bd6:	e9 cb fd ff ff       	jmpq   19a6 <main+0x1886>
    1bdb:	49 89 c7             	mov    %rax,%r15
    1bde:	49 c7 44 24 20 00 00 	movq   $0x0,0x20(%r12)
    1be5:	00 00 
    1be7:	49 c7 44 24 28 00 00 	movq   $0x0,0x28(%r12)
    1bee:	00 00 
    1bf0:	4c 89 f7             	mov    %r14,%rdi
    1bf3:	4d 89 fc             	mov    %r15,%r12
    1bf6:	e8 00 00 00 00       	callq  1bfb <main+0x1adb>
    1bfb:	b8 f3 01 00 00       	mov    $0x1f3,%eax
    1c00:	4c 29 e8             	sub    %r13,%rax
    1c03:	4c 69 e8 d0 02 00 00 	imul   $0x2d0,%rax,%r13
    1c0a:	49 01 dd             	add    %rbx,%r13
    1c0d:	49 39 dd             	cmp    %rbx,%r13
    1c10:	0f 84 c1 fb ff ff    	je     17d7 <main+0x16b7>
    1c16:	49 81 ed d0 02 00 00 	sub    $0x2d0,%r13
    1c1d:	49 8d 7d 20          	lea    0x20(%r13),%rdi
    1c21:	e8 00 00 00 00       	callq  1c26 <main+0x1b06>
    1c26:	eb e5                	jmp    1c0d <main+0x1aed>
    1c28:	49 89 c4             	mov    %rax,%r12
    1c2b:	eb ce                	jmp    1bfb <main+0x1adb>
    1c2d:	48 89 c3             	mov    %rax,%rbx
    1c30:	e9 a5 fb ff ff       	jmpq   17da <main+0x16ba>
    1c35:	48 89 c3             	mov    %rax,%rbx
    1c38:	e9 bd fb ff ff       	jmpq   17fa <main+0x16da>
    1c3d:	49 8d 7c 24 20       	lea    0x20(%r12),%rdi
    1c42:	49 c7 44 24 20 00 00 	movq   $0x0,0x20(%r12)
    1c49:	00 00 
    1c4b:	49 c7 44 24 28 00 00 	movq   $0x0,0x28(%r12)
    1c52:	00 00 
    1c54:	48 89 c3             	mov    %rax,%rbx
    1c57:	e8 00 00 00 00       	callq  1c5c <main+0x1b3c>
    1c5c:	e9 79 fb ff ff       	jmpq   17da <main+0x16ba>
    1c61:	49 89 c4             	mov    %rax,%r12
    1c64:	48 8b 85 50 73 fa ff 	mov    -0x58cb0(%rbp),%rax
    1c6b:	48 8d 78 e8          	lea    -0x18(%rax),%rdi
    1c6f:	48 81 ff 00 00 00 00 	cmp    $0x0,%rdi
    1c76:	0f 84 93 fc ff ff    	je     190f <main+0x17ef>
    1c7c:	e9 14 fd ff ff       	jmpq   1995 <main+0x1875>
    1c81:	49 89 c4             	mov    %rax,%r12
    1c84:	48 8b 85 60 73 fa ff 	mov    -0x58ca0(%rbp),%rax
    1c8b:	48 8d 78 e8          	lea    -0x18(%rax),%rdi
    1c8f:	e8 00 00 00 00       	callq  1c94 <main+0x1b74>
    1c94:	e9 6a fc ff ff       	jmpq   1903 <main+0x17e3>
    1c99:	e9 91 fc ff ff       	jmpq   192f <main+0x180f>
    1c9e:	48 89 c3             	mov    %rax,%rbx
    1ca1:	48 8d 85 30 7e fa ff 	lea    -0x581d0(%rbp),%rax
    1ca8:	48 8d 78 10          	lea    0x10(%rax),%rdi
    1cac:	e8 00 00 00 00       	callq  1cb1 <main+0x1b91>
    1cb1:	e9 50 fb ff ff       	jmpq   1806 <main+0x16e6>
    1cb6:	48 89 c3             	mov    %rax,%rbx
    1cb9:	e9 48 fb ff ff       	jmpq   1806 <main+0x16e6>
    1cbe:	48 89 c3             	mov    %rax,%rbx
    1cc1:	e9 4c fb ff ff       	jmpq   1812 <main+0x16f2>
    1cc6:	48 89 c3             	mov    %rax,%rbx
    1cc9:	e9 50 fb ff ff       	jmpq   181e <main+0x16fe>
    1cce:	49 89 c4             	mov    %rax,%r12
    1cd1:	48 8b 85 b0 72 fa ff 	mov    -0x58d50(%rbp),%rax
    1cd8:	48 8d 78 e8          	lea    -0x18(%rax),%rdi
    1cdc:	48 81 ff 00 00 00 00 	cmp    $0x0,%rdi
    1ce3:	0f 84 6e fc ff ff    	je     1957 <main+0x1837>
    1ce9:	e9 5d fc ff ff       	jmpq   194b <main+0x182b>
    1cee:	49 89 c4             	mov    %rax,%r12
    1cf1:	48 8b 85 c0 72 fa ff 	mov    -0x58d40(%rbp),%rax
    1cf8:	48 8d 78 e8          	lea    -0x18(%rax),%rdi
    1cfc:	48 81 ff 00 00 00 00 	cmp    $0x0,%rdi
    1d03:	0f 84 4e fc ff ff    	je     1957 <main+0x1837>
    1d09:	e9 3d fc ff ff       	jmpq   194b <main+0x182b>
    1d0e:	49 89 c4             	mov    %rax,%r12
    1d11:	48 8b 85 d0 72 fa ff 	mov    -0x58d30(%rbp),%rax
    1d18:	48 8d 78 e8          	lea    -0x18(%rax),%rdi
    1d1c:	e8 00 00 00 00       	callq  1d21 <main+0x1c01>
    1d21:	e9 83 fc ff ff       	jmpq   19a9 <main+0x1889>
